(lp0
(lp1
V
p2
aV- Bara -
p3
aV- Dragon -
p4
aV- FreeZe -
p5
aV- hound -
p6
aV- KaMYu -
p7
aV- M a g i -
p8
aV- myRumble -
p9
aV- puppet -
p10
aV- RaWR -
p11
aV- S p r i t e -
p12
aV- SnowBallerr -
p13
aV--Dynan
p14
aV--KEY--75253744
p15
aV-Aether-
p16
aV-Akame-
p17
aV-BadMuffin-
p18
aV-bagels-
p19
aV-BoobyLeader-
p20
aV-Chronopolis-
p21
aV-Cleony
p22
aV-COUH-
p23
aV-Darkme-
p24
aV-EnderDee-
p25
aV-F4
p26
aV-Frosty-
p27
aV-Gygy-
p28
aV-Helix-
p29
aV-Hibikom-
p30
aV-Iori-
p31
aV-Jws
p32
aV-Kahli-
p33
aV-Ket-
p34
aV-kz
p35
aV-L_Key-
p36
aV-MaR1[v]
p37
aV-Mause-
p38
aV-Mint yuki-
p39
aV-Monogatari-
p40
aV-Mymix-
p41
aV-Nemes1s-
p42
aV-Nyaako
p43
aV-osu-
p44
aV-reverie-
p45
aV-Rezh-
p46
aV-R_
p47
aV-Sam-
p48
aV-Sei
p49
aV-shatter
p50
aV-SpeechLess-
p51
aV-Speedy
p52
aV-SuHeRa-
p53
aV-Taeru-
p54
aV-Usami Mizuki-
p55
aV-Wizard-
p56
aV-WZT-
p57
aV-Yums
p58
aV-Zirba-
p59
aV-[LIu_NAIN]
p60
aV-[Sveltepeach]-
p61
aV01youngandfree
p62
aV07ly
p63
aV0melee
p64
aV0oCOCCOo0
p65
aV0riha
p66
aV1 zero
p67
aV10086PC
p68
aV100myorang
p69
aV10p
p70
aV12345zylzyl
p71
aV12JTGAM
p72
aV13712572330
p73
aV14NSIVIYA18
p74
aV15160708920
p75
aV186ms
p76
aV20Cat
p77
aV21spyros21
p78
aV21_sucks
p79
aV233men
p80
aV27Yami
p81
aV2jjy
p82
aV3939panda
p83
aV3ndone
p84
aV4Combos
p85
aV555satan555
p86
aV5amgamer
p87
aV5DoNuT2
p88
aV5Edgar
p89
aV5HUE0GHXZ
p90
aV614louis
p91
aV66Luki
p92
aV7 D4ys
p93
aV9124290302
p94
aV99_volt
p95
aV9eater
p96
aV9s-02
p97
aVa newbie
p98
aVa05062807198
p99
aVa1516030627
p100
aVa1641911146
p101
aVa3316307
p102
aVa762012081
p103
aVAAA
p104
aVaaaaaa998829
p105
aVaaaatttddddda
p106
aVaallshow
p107
aVaans1
p108
aVAasidn
p109
aVAayu
p110
aVabateur
p111
aVAbelia
p112
aVabloblo1
p113
aVABSOLUTE EPIC 9
p114
aVAccelar
p115
aVAccelerator--
p116
aVACE11111111
p117
aVAcelaryk
p118
aVAceOfJokrs
p119
aVAceofSpades77
p120
aVAchim
p121
aVAchra
p122
aVacidmudcrabs
p123
aVacrawford69
p124
aVActionJack
p125
aVAcualis
p126
aVAdam_tw
p127
aVAdekhey
p128
aVAdela
p129
aVAdem59
p130
aVadnukerzed
p131
aVAdonis1217
p132
aVAdriensud
p133
aVadzoftw
p134
aVAelSan
p135
aVAeroDynamicsE
p136
aVaerofire2050
p137
aVAeroPoi
p138
aVAero_AXIS
p139
aVAesuie
p140
aVaFlawedMind
p141
aVagario pro
p142
aVAgatsu
p143
aVAHAAA
p144
aVahmadfateh
p145
aVaicMiRan
p146
aVaidencd
p147
aVAidown
p148
aVAikoNda
p149
aVAilitonia
p150
aVAim_Not_Fast
p151
aVAirwam
p152
aVAiyadesu
p153
aVAkaeri
p154
aVAkaiShiro
p155
aVakajin
p156
aVakakaOvO
p157
aVAkaneUwU
p158
aVakari3
p159
aVAkenoSan
p160
aVAkibase
p161
aVAkiding
p162
aVakijya
p163
aVAkira -
p164
aVAkisa
p165
aVAkumaWraith
p166
aVakzelnet
p167
aValaddindoll
p168
aValanrocks243
p169
aValbatross0313
p170
aVAlchemy
p171
aVAlcrantos
p172
aValeios
p173
aVAlesia
p174
aValexisg06
p175
aVAleXxTexXMeXx
p176
aVAlfe
p177
aValfieI
p178
aVAlien423
p179
aVAliLeVoleur
p180
aVAliremu
p181
aValisaidai
p182
aVAlistair
p183
aVall is good
p184
aVAllas
p185
aVAlmond jelly
p186
aVAloe
p187
aVAlon5o14
p188
aVAlphaOG
p189
aVAlphid
p190
aVAlps
p191
aVAlptroy
p192
aVals0kk
p193
aVAlteus
p194
aValtria pen
p195
aValukichi
p196
aVAlululuba
p197
aVAmadori
p198
aVAmalth
p199
aVAmamiya Yuko
p200
aVAmanatsu
p201
aVAmanion
p202
aVAmaotoko
p203
aVamayo
p204
aVAmbeurre
p205
aVAmbrosia
p206
aVAmrazz_
p207
aVananas345
p208
aVAncirel
p209
aVandeww
p210
aVAndra
p211
aVAndroiNyan21
p212
aVAndy Mp4
p213
aVAnepigraphe
p214
aVAnes450
p215
aVAngel stone
p216
aVangeliol
p217
aVAngry
p218
aVanguspmc
p219
aVAniLuLu
p220
aVAnimevirgin69
p221
aVAnkeh
p222
aVanpokotan
p223
aVAnroyz
p224
aVAnthonewch
p225
aVanthony101211
p226
aVAnthonyvai
p227
aVanton8do1
p228
aVAoineKuhaku
p229
aVAominecchi
p230
aVaosj
p231
aVAoyLuka
p232
aVapaffy
p233
aVApathett
p234
aVAPOOOOOOOOOOOO
p235
aVApor1a
p236
aVAppleCD
p237
aVApplez-
p238
aVApx
p239
aVAR10 Only
p240
aVAragon-
p241
aVArashinotsuki
p242
aVarcadeon
p243
aVAricin
p244
aVarigil
p245
aVArisa Senpai
p246
aVArisu kurodia
p247
aVArividerchi
p248
aVArKatict
p249
aVarm06118
p250
aVArno03
p251
aVArox Haraldia
p252
aVArrcival
p253
aVArricon
p254
aVArsaii
p255
aVArtIsBlind
p256
aVarty
p257
aVAruisehu
p258
aVARUMOH
p259
aVarun 91
p260
aVas25315606
p261
aVas4809
p262
aVAsada-sinon
p263
aVAsalas
p264
aVasdf78993
p265
aVAsha
p266
aVAshiven
p267
aVasianm3ll0n
p268
aVasianman420
p269
aVAsianRecruit
p270
aVAsianSkrub
p271
aVAsiL
p272
aVAsly
p273
aVASMDGG
p274
aVaSpacemanIAm
p275
aVASPiL
p276
aVAsredon
p277
aVASSYOUCAN
p278
aVasu6000
p279
aVAsunirito
p280
aVasupe
p281
aVAtosaki
p282
aVAtsuhittooo
p283
aVAtsuyoAyaa
p284
aVAu-Eustia
p285
aVAubade
p286
aVAukAssela
p287
aVAurum_Arc
p288
aVAusna
p289
aVAutisticHo
p290
aVavenger9
p291
aVavex
p292
aVaviatan
p293
aVavolt
p294
aVawa11s
p295
aVawand0806
p296
aVAweful
p297
aVAxcode
p298
aVAxe665
p299
aVaxelnaveen
p300
aVaXises
p301
aVAxls
p302
aVayachlnene
p303
aVAyase eLyk
p304
aVAyato k
p305
aVAyiYaya
p306
aVAyless
p307
aVaysaplarocky
p308
aVAyumi-sake
p309
aVAyzu
p310
aVAzer
p311
aVazerthug
p312
aVazex
p313
aVAzira62
p314
aVAzkiel1sNothing
p315
aVAznastieme
p316
aVAzorex-
p317
aVAzosiarum
p318
aVAzrodee
p319
aVAzrue Glass
p320
aVAzukiSakura
p321
aVAzureUmbra
p322
aVazurewings
p323
aVAzurix
p324
aVAzusa_Zz
p325
aVA_Nanami
p326
aVA_than_Lily
p327
aVa_xin
p328
aVB e n
p329
aVb0nkers
p330
aVB1ackSand
p331
aVB3zrker
p332
aVbabyhoo976
p333
aVBABYMETAL
p334
aVBaconyBacon
p335
aVbad rhythm
p336
aVbada3425
p337
aVBaDrascore
p338
aVBaezin
p339
aVBaguette946
p340
aVBahamut Scarlet
p341
aVBakaWauso
p342
aVBakugo-
p343
aVBakuhatu01
p344
aVbamboozlement
p345
aVBambus123
p346
aVbanira0709
p347
aVbanoodles
p348
aVbanouxxx
p349
aVBanweol
p350
aVbapp1e
p351
aVBaram
p352
aVBardo
p353
aVBarg3
p354
aVbarjunkie
p355
aVbatap
p356
aVBB_Banboo
p357
aVbdapple
p358
aVBDRTPST
p359
aVbeachdayo
p360
aVBeafantles
p361
aVbeanlad42069
p362
aVBeatGage
p363
aVBecca
p364
aVBeckyryC
p365
aVBecomeOne
p366
aVbeerkk2345
p367
aVbeiyanpiki
p368
aVBeleusye
p369
aVBenetKingHD_
p370
aVbenthedieu
p371
aVbenyoy
p372
aVberrynana
p373
aVBest
p374
aVbestman0823
p375
aVBestrum
p376
aVBiffly
p377
aVBig Brother
p378
aVBigbangbombe
p379
aVbigbungus
p380
aVBighan
p381
aVBigSupercast
p382
aVbigtog0602
p383
aVBilbo
p384
aVbilibilicnm
p385
aVbilliack
p386
aVBilly
p387
aVBin7
p388
aVbirdyaa
p389
aVBireon
p390
aVBishamonten
p391
aVBIU BIU
p392
aVBIU-skyvoice
p393
aVblack109sky
p394
aVBlackdow764
p395
aVBlackOrgi
p396
aVBlackPisces
p397
aVBlackSnoww
p398
aVBlack_x_Snow
p399
aVBlade_Waltz
p400
aVBlahpeet
p401
aVblakeskruppy
p402
aVBlanderz
p403
aVBlanke
p404
aVblanketOSU
p405
aVBlasticag
p406
aVBlastof
p407
aVBlawalaw
p408
aVblazeray123456
p409
aVbldoggy51
p410
aVBldyWeapon
p411
aVBleachFTW
p412
aVbleachyfresh
p413
aVBleenk
p414
aVBLEETZ
p415
aVBlenic
p416
aVBlitz78
p417
aVBLOG3
p418
aVBlood45Dragon
p419
aVBloodlEyes
p420
aVBloodx
p421
aVBloodypurity028
p422
aVBlue Menma
p423
aVblue potato
p424
aVBlueBerrY dessert
p425
aVbluehorse12
p426
aVbLuGhOsT
p427
aVBluTew
p428
aVBluu
p429
aVbo0st
p430
aVbob senpai
p431
aVbob1595
p432
aVbobrossfan
p433
aVBocks Bocks
p434
aVBogalog
p435
aVBonnerPatrol
p436
aVBonnieda
p437
aVBoogimaan
p438
aVBoomer2
p439
aVBoragan
p440
aVBorn To Meme
p441
aVBoros
p442
aVBOT Sloth
p443
aVBoudib
p444
aVBoy
p445
aVbr0keh4n
p446
aVBraydenWalden
p447
aVBrazahh
p448
aVbreeadchaan
p449
aVBrenn52
p450
aVbrezenman
p451
aVBrightNighterLP
p452
aVbrobaro
p453
aVBrokenCpu
p454
aVbronco2p
p455
aVBrontay
p456
aVbru123
p457
aVBrutalize
p458
aVBs_Rem
p459
aVBtGravity
p460
aVbuckethead390
p461
aVbud
p462
aVburen12
p463
aVbursakill
p464
aVbvx
p465
aVBW_Joy
p466
aVBxconX
p467
aVbxe113184
p468
aVby boyu
p469
aVbyfar
p470
aVBZetsu
p471
aVB_Bear
p472
aVB_Makkuro
p473
aVC1earlove
p474
aVC418
p475
aVC4maLK
p476
aVCable
p477
aVCahuCieno
p478
aVCailum
p479
aVCAL1FORNIA
p480
aVCalamareee
p481
aVCalvinWinz
p482
aVCANAN-
p483
aVcanyoufeel12
p484
aVCapn
p485
aVCaptainStylish
p486
aVCAQ
p487
aVCarolynLive
p488
aVCasino
p489
aVCat-man
p490
aVCataclysm
p491
aVCatmiss
p492
aVcat_irl
p493
aVccc4c
p494
aVcclemonade
p495
aVccmykk
p496
aVcc______
p497
aVcellphone3
p498
aVcelost
p499
aVCenril
p500
aVCero
p501
aVCET 4
p502
aVcfc3434
p503
aVCFragger
p504
aVCh3mson
p505
aVChaosum
p506
aVCharybdis
p507
aVChase
p508
aVChaso
p509
aVChat DeCheshire
p510
aVchaukii
p511
aVchecazzodici
p512
aVChenJZ
p513
aVchenyiping1995
p514
aVChibie
p515
aVChicachura
p516
aVChickenNuggets
p517
aVChickenQuack
p518
aVchiitohideki
p519
aVchikasan
p520
aVChikuso
p521
aVChill Out
p522
aVChillPlays
p523
aVchillware_hvh
p524
aVChinael
p525
aVChingu_1
p526
aVchippaipan
p527
aVChipsetS
p528
aVChiswell
p529
aVChiyochan
p530
aVchl14496
p531
aVChocolatable
p532
aVChocorock
p533
aVChoi jeong ho
p534
aVChoke-o-mint
p535
aVChokeeB
p536
aVChongasaurus
p537
aVChopep
p538
aVChottomatte
p539
aVChrazey
p540
aVchris030693
p541
aVchrisgu1
p542
aVchristaki
p543
aVchromatronic
p544
aVChronical V
p545
aVChronoshift
p546
aVChronou
p547
aVChumpz
p548
aVChungChun
p549
aVchurchgirl
p550
aVChuuyaNakahara
p551
aVchwo9843
p552
aVCI0
p553
aVCielaRoyal
p554
aVCitypressure
p555
aVck0524
p556
aVcksgnl0905
p557
aVcl21
p558
aVClaximillions
p559
aVClementPrn
p560
aVClloz
p561
aVCloud Air
p562
aVCloudyy
p563
aVClovers
p564
aVCluud
p565
aVcl_neko
p566
aVCMSIR
p567
aVCNjoin
p568
aVCN_8_77
p569
aVCocaColas
p570
aVcocoloco2
p571
aVCoCoNuts
p572
aVCode 000
p573
aVCode Eve
p574
aVCoder-
p575
aVCoin Coin
p576
aVcoined2
p577
aVColaCocaL
p578
aVColna_MoMi
p579
aVColourful
p580
aVColourpen
p581
aVComeFischer
p582
aVComMouse
p583
aVComplexENV
p584
aVCondom
p585
aVCondyle
p586
aVcooki-chan
p587
aVCookie-izi
p588
aVCooncream
p589
aVcopyneco
p590
aVCoron
p591
aVCorrin
p592
aVcosmic
p593
aVCottler
p594
aVcovername
p595
aVCovonix
p596
aVCPA8073
p597
aVCracine
p598
aVcraftdoforest22
p599
aVCraftFire
p600
aVCrafting4U
p601
aVCrashRox
p602
aVCRazorback
p603
aVCrazyYellowAnt
p604
aVCreal-sk
p605
aVCreserlia
p606
aVcrimesloth
p607
aVcrippletoytl
p608
aVCrocs
p609
aVCroP1ss
p610
aVcrpack
p611
aVCrucio
p612
aVCryingToad
p613
aVCryMagic
p614
aVCrynech
p615
aVCrynless
p616
aVCrystalBepis
p617
aVCRyzzIS
p618
aVcsadas
p619
aVCs_Rag3
p620
aVctrl
p621
aVcuix
p622
aVculq
p623
aVCureNEET
p624
aVCurty2
p625
aVcwizzy11
p626
aVcy951012
p627
aVCyan Cat
p628
aVCyanoxygen
p629
aVcynesta33
p630
aVCYP450
p631
aVCyTek
p632
aVCyyc
p633
aVCzresent_Reaper
p634
aVD-Doss
p635
aVd0br0ta
p636
aVD0nald Trump
p637
aVD13t3r
p638
aVD3ATH610
p639
aVD4N13L9
p640
aVDa Hyun
p641
aVDaani0
p642
aVDab
p643
aVdadadadada
p644
aVdademarc
p645
aVDaelite56
p646
aVdaggermagic
p647
aVDaidagos
p648
aVDaiikyu
p649
aVDaily Choice
p650
aVDaksmagus
p651
aVdaliomoc
p652
aVDallyfish
p653
aVDan
p654
aVDancharr
p655
aVDANCK
p656
aVDandou11
p657
aVDandyi
p658
aVDanielChan_0_0
p659
aVDanielPerson-
p660
aVDanielsGame
p661
aVDannny
p662
aVDanuxy
p663
aVDariusar
p664
aVDark Souls PRO
p665
aVdarkdace
p666
aVDarkFalco
p667
aVDarkLinkMaster
p668
aVDarkninja1010
p669
aVDarkRalts
p670
aVDarkreign
p671
aVDarkTe
p672
aVDarkusBlitz
p673
aVDarkViperTV
p674
aVDark_____Kami
p675
aVDarmyster
p676
aVDarud3
p677
aVdasarang694
p678
aVDatDemarco
p679
aVDatkxman
p680
aVdatlizad
p681
aVdav
p682
aVdavidjung22
p683
aVDavinoff
p684
aVdaxda
p685
aVDaydayNANA
p686
aVdaze16
p687
aVdbgml0112
p688
aVdbluk
p689
aVdbwlgus5713
p690
aVDBZNoxx
p691
aVdcv
p692
aVdddawannn
p693
aVddddd
p694
aVDeAdSeA21
p695
aVDeath Echo
p696
aVdeathseyes
p697
aVdecrim
p698
aVDeidaraHasPals
p699
aVDekou
p700
aVDelusionWire
p701
aVdem memez
p702
aVDemi_ryou
p703
aVDemon6tool
p704
aVDemonic Soldier
p705
aVdennysk
p706
aVDeoxys
p707
aVDeoxySugar
p708
aVDer Tatdiy
p709
aVDerasin
p710
aVDerEchteCarsten
p711
aVDerFynn
p712
aVDerpyxz
p713
aVDerTopKek
p714
aVdesadia
p715
aVDescaii
p716
aVDesperate
p717
aVDestic
p718
aVdestin de
p719
aVDestino_xD
p720
aVDestro848
p721
aVdestroyerv1
p722
aVDeThom
p723
aVDeus PandaWan
p724
aVDeusTeeny
p725
aVDevapex
p726
aVDevilsElite
p727
aVDexMark
p728
aVdhtldhfk12
p729
aVDiator
p730
aVDiceOfLucks
p731
aVDiecBeck
p732
aVDigga737
p733
aVDinamo
p734
aVDingleHopper
p735
aVdingoman2
p736
aVdisabledwolf
p737
aVDislike_JoeChou
p738
aVdisorderuta
p739
aVdivinereigns
p740
aVDJ Octavia
p741
aVdjgc
p742
aVdltlgos
p743
aVdltpt99
p744
aVDmfree
p745
aVdmstjd0812
p746
aVdntjd5901
p747
aVdobong827
p748
aVDocZoid
p749
aVDoesn
p750
aVdofen
p751
aVDoki Doki
p752
aVDominatorC
p753
aVDomoJr
p754
aVdomplayer
p755
aVDomSempai
p756
aVDonisama
p757
aVDonksities
p758
aVDonMartino
p759
aVDontDoItDan
p760
aVDonutt2000
p761
aVDonyx
p762
aVdoofi
p763
aVDoppelganger X
p764
aVDopyNopy
p765
aVDosengemuese
p766
aVDoubiTime
p767
aVDouchebag
p768
aVDoveMS
p769
aVDracco71
p770
aVDragey39
p771
aVDragonfligh
p772
aVDragonlife
p773
aVDrakingSNK
p774
aVDrakOsu
p775
aVDranoel1
p776
aVDratbros
p777
aVDrDepression11
p778
aVDRDOZMAN
p779
aVdreamshase
p780
aVdream_mage
p781
aVdretland2
p782
aVDrizzix
p783
aVdrrlsjr
p784
aVDschanner
p785
aVDTHR
p786
aVDtsc
p787
aVduck3134
p788
aVDuckmoom
p789
aVDuckNuckem02
p790
aVDUDADIDO
p791
aVdudure12
p792
aVdukci
p793
aVDukesX
p794
aVDumaKuma
p795
aVduminjie
p796
aVDurk Bule
p797
aVDurRett
p798
aVDustyDoug
p799
aVduton97
p800
aVDWdotwarner
p801
aVdym
p802
aVDysaya
p803
aVE L S
p804
aVE1gh7
p805
aVe6e5fe_Ru
p806
aVEagl3F1re
p807
aVEatRiceforLunch
p808
aVEcchiZone
p809
aVecstasy19
p810
aVEddie Benson
p811
aVEdrik
p812
aVEdwardAltair
p813
aVEFXTKR
p814
aVeggg
p815
aVeggplant7788
p816
aVehekatl
p817
aVEhstat
p818
aVEightBitLoxs
p819
aVEighto
p820
aVEilias
p821
aVEklair13
p822
aVEkwok
p823
aVEl dieno
p824
aVELBBANG
p825
aVeldhkem
p826
aVElectruedynamix
p827
aVElemondCraw
p828
aVEleyox
p829
aVElfe
p830
aVElferSilence
p831
aVElgoUnderground
p832
aVElgrand
p833
aVelie895
p834
aVelitebuild
p835
aVElkatrix
p836
aVelldix
p837
aVElliott
p838
aVelme613
p839
aVelPedro
p840
aVElregatono
p841
aVElspirit
p842
aVelthman
p843
aVElv0rig
p844
aVelvis314
p845
aVEmertxE
p846
aVEmmersk
p847
aVEmpax
p848
aVEmpty7
p849
aVEnchirideon
p850
aVEnd-Star
p851
aVEnderfire
p852
aVEndiom
p853
aVEnemy Watch
p854
aVeniyan
p855
aVEnjoi
p856
aVEnjoyzeno
p857
aVEntalize
p858
aVepge
p859
aVEphix
p860
aVEpic1230
p861
aVEpiphanyer
p862
aVEriitoSenshi
p863
aVerkrafter
p864
aVerniye
p865
aVEske N1K
p866
aVEstelFreesia
p867
aVEternalAir
p868
aVeternitycat13
p869
aVEthan bonbon
p870
aVethyr
p871
aVetlvn
p872
aVetoc
p873
aVEun See-A
p874
aVeunsu1
p875
aVEuropix
p876
aVEveret
p877
aVeveryyear
p878
aVEvilJester
p879
aVevu
p880
aVExactable
p881
aVexc
p882
aVExileh
p883
aVExileHunter
p884
aVExoZoid
p885
aVExploitOW
p886
aVExplosion007
p887
aVExpress
p888
aVExsegeg
p889
aVextremelolftw
p890
aVExxotikTurtle
p891
aVEyce
p892
aVEyjii
p893
aVEzekhiel
p894
aVezemAnia
p895
aVeziar
p896
aVEzoYuki
p897
aVezroth
p898
aVF E U A
p899
aVf1orzy
p900
aVF1REDBULL
p901
aVfabulos47
p902
aVFalcyo
p903
aVFallen762
p904
aVFangedpilot
p905
aVFantazindy
p906
aVFarastus
p907
aVFauxtasy
p908
aVFayae
p909
aVFayeurS
p910
aVFeelin Sky
p911
aVFeena
p912
aVFelixphaeton
p913
aVfertilizer
p914
aVFforza
p915
aVFGSky fanboy
p916
aVFight69
p917
aVFightingStar
p918
aVFilivia
p919
aVFina
p920
aVfine sir
p921
aVFireblazeNr1
p922
aVFireri
p923
aVFish_EXE
p924
aVflames1764
p925
aVFlamie
p926
aVFlashLight
p927
aVfldkwls
p928
aVFLEW
p929
aVflim floop
p930
aVFlippanteer
p931
aVFlouria
p932
aVFlower
p933
aVflowerbox
p934
aVFlo_12344
p935
aVfluey
p936
aVfluqour
p937
aVFlutterShye
p938
aVflycounter
p939
aVflynsarmy
p940
aVFmlrager
p941
aVFobxx
p942
aVfoiscs
p943
aVfoodyy
p944
aVFool Man
p945
aVForceOfPain
p946
aVFoulard
p947
aVFox-San
p948
aVFoxodi
p949
aVfoxwjl01
p950
aVFPS_JasonD
p951
aVFraiits
p952
aVfrayboi
p953
aVFrebby
p954
aVFredoFox
p955
aVfredsyladam
p956
aVFreeza77
p957
aVFreshMeatForDay
p958
aVfrontalajin
p959
aVFruitParfait
p960
aVFRVirusS
p961
aVfsz3908
p962
aVFTN
p963
aVFUJIKKKK
p964
aVfuki6
p965
aVFuko
p966
aVFumi-
p967
aVfunkyrobotclub
p968
aVFuRiouS7
p969
aVFurry Trash
p970
aVFurukawa Sakuya
p971
aVFuzzie
p972
aVfyre
p973
aVG A M E
p974
aVG of D
p975
aVg0d
p976
aVg1ffy
p977
aVGaaeul
p978
aVGalaxy_djx
p979
aVGalazounet
p980
aVgalkkk
p981
aVgallantgreg
p982
aVgambokani
p983
aVgamer girl
p984
aVGamerJayden
p985
aVgamibako
p986
aVGantZuQQ
p987
aVGaspar
p988
aVGatorZZ
p989
aVGazzaVad
p990
aVGBpon
p991
aVGBunter
p992
aVGCDBD
p993
aVGeartech1
p994
aVgedoumaru
p995
aVGeenes
p996
aVGenericPDN
p997
aVGenfujin
p998
aVGentrification
p999
aVgeometryshanes
p1000
aVgfdsa8
p1001
aVGGaNick
p1002
aVGhostydesu
p1003
aVGhost_Wither_GG
p1004
aVGhskljd
p1005
aVghu9999
p1006
aVghwns0106
p1007
aVGibbs
p1008
aVgiorno giovanna
p1009
aVGistick
p1010
aVgjunyt
p1011
aVGK1114
p1012
aVgksskd2
p1013
aVgkycl
p1014
aVGleneavy
p1015
aVglgol
p1016
aVGlowro
p1017
aVgmkyoukan
p1018
aVGNOATXEL
p1019
aVGnuhiak
p1020
aVgobigab
p1021
aVGod Donut
p1022
aVGodBuy
p1023
aVGODIEN
p1024
aVgodlyagenda
p1025
aVGodOfPoo
p1026
aVGodsu3
p1027
aVGOETSC
p1028
aVgolden pepe
p1029
aVGoldenMine
p1030
aVgoln
p1031
aVgoN-
p1032
aVGood Guy Cristo
p1033
aVGosumDocci
p1034
aVGotcha
p1035
aVGovizlora
p1036
aVGPS
p1037
aVgraceyoru
p1038
aVGrand Prix
p1039
aVgraymar11
p1040
aVGreedypig
p1041
aVgreenbelt210
p1042
aVgreenking0912
p1043
aVGreenmito
p1044
aVgrggxxy
p1045
aVgribu
p1046
aVGrosGitanBastos
p1047
aVGrouchy
p1048
aVGrover
p1049
aVgrover2000
p1050
aVGRQ
p1051
aVGsBush23
p1052
aVgt0r518
p1053
aVGTX486
p1054
aVGugigiGU
p1055
aVGuilty Kiss
p1056
aVgundam004
p1057
aVGunshi
p1058
aVGUSOR
p1059
aVgusrua123
p1060
aVgxj1049
p1061
aVGZTing
p1062
aVg_kub
p1063
aVh0td0g
p1064
aVH4rtm4nn
p1065
aVH4rtman
p1066
aVH4xRLeqiT
p1067
aVHa8Shi
p1068
aVHachiman-shin
p1069
aVHadrixHa
p1070
aVhaideuz
p1071
aVhaipa
p1072
aVHaiTanYangGuang
p1073
aVhakomarutaisa
p1074
aVHalfires
p1075
aVHalozhan
p1076
aVhalvetica
p1077
aVHamadaSings
p1078
aVhammer9395
p1079
aVhanachn
p1080
aVHand
p1081
aVHandSonic
p1082
aVHane
p1083
aVHangyodon
p1084
aVHannbur
p1085
aVhansung2383
p1086
aVHappy_house
p1087
aVHaribow
p1088
aVHarpocratess
p1089
aVHarrogathLily
p1090
aVHaRuMaK1
p1091
aVHarutora
p1092
aVharuuru
p1093
aVHashiDE
p1094
aVHaudruf
p1095
aVHaxs
p1096
aVHaydo_1
p1097
aVHayomy
p1098
aVHazbr0
p1099
aVhcmace
p1100
aVHeartlessJoker
p1101
aVheartsama
p1102
aVHeavenClem
p1103
aVHeavens SH
p1104
aVHeaxys
p1105
aVHEELSING
p1106
aVHehasignite
p1107
aVHelplessSoldier
p1108
aVHELSAIZ
p1109
aVHendercraft
p1110
aVHenningGer
p1111
aVHENONGOD
p1112
aVHeoJeanYeong
p1113
aVHerb5482
p1114
aVheshugu
p1115
aVhet185
p1116
aVHexxy
p1117
aVheyyobo
p1118
aVHibiol
p1119
aVhidetoto
p1120
aVHieda-no-Akyuu
p1121
aVhighmaxz
p1122
aVhihihihhihiri
p1123
aVHinagiku
p1124
aVHinataCookie
p1125
aVhipersn
p1126
aVHiroN
p1127
aVhiruace
p1128
aVHiyori_Taiga
p1129
aVhjm121
p1130
aVhk7326
p1131
aVhktrees4
p1132
aVhmmm
p1133
aVhn2647
p1134
aVHnnTs
p1135
aVHo ToKa
p1136
aVHocchibi
p1137
aVHocheol
p1138
aVhohali145
p1139
aVhohohosoi
p1140
aVHomuraAk
p1141
aVHondakojirou
p1142
aVhong784
p1143
aVHonokaMyWaifu
p1144
aVhooterOCE
p1145
aVHopeofDragon
p1146
aVHorie Yui
p1147
aVHorizon404
p1148
aVHorror
p1149
aVHoshigumaYuugi
p1150
aVhoulei188
p1151
aVHowlyeBestGirl
p1152
aVHoyashi
p1153
aVhsl2012
p1154
aVhStick225
p1155
aVHuan Zornlich
p1156
aVhudg
p1157
aVHumili
p1158
aVHunkuuuuu
p1159
aVHuntinFire
p1160
aVhuraipantu
p1161
aVHuran
p1162
aVhustin
p1163
aVhwan_e
p1164
aVHXin
p1165
aVHyacenth
p1166
aVHyoop77
p1167
aVHyperistic
p1168
aVHypnotiikk
p1169
aVH_Blocks
p1170
aVI Ace I
p1171
aVi dont play osu
p1172
aVI main Bastion
p1173
aVI s i s
p1174
aVI suck at osu
p1175
aVI-Flame
p1176
aVi-ota
p1177
aVi220_284
p1178
aViAmEssential
p1179
aViAmnezzia
p1180
aVibaka9
p1181
aVIban
p1182
aVicariin
p1183
aVIcePresence
p1184
aVIchiNiSan123
p1185
aViChris9
p1186
aVIchus
p1187
aVID to disappear
p1188
aVidatenten
p1189
aVidot_-
p1190
aVieee17
p1191
aViF Ever
p1192
aVII Tanuki II
p1193
aVIiIyeonwooIiI
p1194
aVIkekiI
p1195
aVikickarse
p1196
aVIkis64
p1197
aVikmen
p1198
aVIkojiI
p1199
aVikunm
p1200
aVilce_
p1201
aVILikeHangings
p1202
aVIllyasviel Einz
p1203
aVIlmedetongues
p1204
aVILoveSleeping
p1205
aVIlySpiritzZ
p1206
aVim here to love
p1207
aVImaTriggered
p1208
aVImbalancedStick
p1209
aVIMBAsnowynight
p1210
aVImfrigginghey
p1211
aVImmaWoodElf
p1212
aViMoMoe
p1213
aVimoo
p1214
aVImPearl
p1215
aVImtaeyang
p1216
aVimTEHichistop
p1217
aVIm_DeadInside
p1218
aVIN4001
p1219
aVinabateitoku
p1220
aVIndex23
p1221
aViNdiGowl
p1222
aVInfeno
p1223
aVInfinitelation
p1224
aVINFINITY-gene
p1225
aVingoro
p1226
aVIngushew
p1227
aVInhumanTadpole
p1228
aVInnoMin
p1229
aVInnovator
p1230
aVIns4ne OOF
p1231
aVinsaeno
p1232
aViNSPIRE0808
p1233
aVInvintable
p1234
aVIoD-Sama
p1235
aViPext
p1236
aViPhone
p1237
aVirgendetwas
p1238
aVIridium
p1239
aVirises
p1240
aVIrLOL
p1241
aViRodZz
p1242
aViskybritch
p1243
aVisogaii
p1244
aVIsolex
p1245
aViso_056
p1246
aVISTAZ-
p1247
aVIsukLOL
p1248
aVIt was a GG
p1249
aVitigomiruku0147
p1250
aViTricKizZ
p1251
aVits yohane niga
p1252
aVitsHyperion
p1253
aVItsJpex
p1254
aVItsMakelele
p1255
aVItsMePB
p1256
aVItsPulse
p1257
aVitsrivnbaby
p1258
aVItsxAvo
p1259
aVIts_Me_Jasmine
p1260
aVItzShorty
p1261
aVIwilldiesoon
p1262
aViyasine
p1263
aVIzmi
p1264
aVizumi kagami
p1265
aVj0ck0101
p1266
aVJ0ker
p1267
aVJ4SMiNe
p1268
aVJackolant1337
p1269
aVjaewon0905
p1270
aVJagester
p1271
aVjaharley
p1272
aVjakincses
p1273
aVjakster448
p1274
aVJALAPENO444
p1275
aVJalatiphra
p1276
aVJamLovesHam
p1277
aVjankens
p1278
aVJanuszTracz1
p1279
aVJappyBabes
p1280
aVJararered
p1281
aVjaselee
p1282
aVjash96
p1283
aVJasonCity
p1284
aVJasonXtreme
p1285
aVjavi
p1286
aVJaxGhost
p1287
aVJaybeeh1
p1288
aVJayson
p1289
aVjayzw0w
p1290
aVJazzieee
p1291
aVJeanChomaj
p1292
aVJeannySega
p1293
aVjelly_master
p1294
aVJentle
p1295
aVjere344
p1296
aVjeremclam92
p1297
aVJeremiahKun24
p1298
aVJeremy Clarkson
p1299
aVJG Unbelievable
p1300
aVJGLF
p1301
aVJhyukiSena
p1302
aVJim-Tony
p1303
aVjin0317
p1304
aVJing Yue
p1305
aVjinse4145
p1306
aVJinStails
p1307
aVJJ FLY
p1308
aVjjhch98
p1309
aVjjho523
p1310
aVJJuya
p1311
aVjk-hqruh1
p1312
aVJLxiao8
p1313
aVjm00517
p1314
aVjm961223
p1315
aVjodmangel
p1316
aVjoe01489
p1317
aVJojolebarjot
p1318
aVJokers_Satanael
p1319
aVjonathanasdf
p1320
aVJonJonH
p1321
aVJonManjiro
p1322
aVjordab
p1323
aVjosbrother
p1324
aVJoser
p1325
aVJoshSeali
p1326
aVJoshua24346
p1327
aVJoshuaCoppo
p1328
aVjoueRED
p1329
aVJoufa
p1330
aVJovii
p1331
aVJoyi
p1332
aVJoyMosol
p1333
aVjps002
p1334
aVJu-S
p1335
aVJudge
p1336
aVJuke
p1337
aVJuLi0n_
p1338
aVjunhg0211
p1339
aVJust Sennah
p1340
aVJustByVarex
p1341
aVJustCalmDown
p1342
aVJustEP
p1343
aVJusticized
p1344
aVJustJamesEdits
p1345
aVjuzim
p1346
aVju_
p1347
aVJval93700
p1348
aVJvlian69
p1349
aVjwels101
p1350
aVK1nJI
p1351
aVk1supermouse
p1352
aVK423
p1353
aVKaayBee
p1354
aVKabame
p1355
aVKahabrakh
p1356
aVKaihua
p1357
aVKaIihua
p1358
aVkaito0920
p1359
aVKaiyu
p1360
aVkakakak
p1361
aVKaliba
p1362
aVKAMAITACHI
p1363
aVKambrod
p1364
aVKamicchi
p1365
aVKamiNoKage
p1366
aVKAMISUTE
p1367
aVKamiXF
p1368
aVKampel125
p1369
aVKampfKeks502
p1370
aVKanawo
p1371
aVkanba216
p1372
aVkanchanXD
p1373
aVKancloud
p1374
aVKandiStar
p1375
aVkanelink
p1376
aVKangaroo
p1377
aVKarbonyth
p1378
aVKarlittle_Boi
p1379
aVKaruizawa
p1380
aVKaseiiju
p1381
aVKashikan
p1382
aVKasi
p1383
aVKasukii
p1384
aVKATching
p1385
aVKavash
p1386
aVKawaii Sin
p1387
aVkaws
p1388
aVKaxyubok
p1389
aVKayla
p1390
aVKazTO
p1391
aVkazuyan112
p1392
aVKealthaz
p1393
aVKeepSOBP
p1394
aVKehu
p1395
aVKellyJ
p1396
aVKellyKris
p1397
aVkemutaso
p1398
aVkennyboy
p1399
aVKentoruya
p1400
aVkentya
p1401
aVKenzakiHiruko
p1402
aVKepsy
p1403
aVKerbuts
p1404
aVKergio
p1405
aVKeriou
p1406
aVKermi
p1407
aVKERO201117
p1408
aVKerupt
p1409
aVKetcher
p1410
aVKetra T
p1411
aVKetsuroo
p1412
aVkeuel
p1413
aVkevinzaft
p1414
aVKevvzu
p1415
aVKeystream
p1416
aVKeytix
p1417
aVKGB
p1418
aVKhac
p1419
aVKhanhisNgu
p1420
aVKhuth
p1421
aVKi To
p1422
aVKIAowo
p1423
aVKicneko
p1424
aVKiedou
p1425
aVKifori
p1426
aVKiintsuki
p1427
aVkikikiki1234
p1428
aVkilardo
p1429
aVKill King
p1430
aVKillerPanda
p1431
aVkiller_sobaka
p1432
aVkillmewithfire
p1433
aVKillzy
p1434
aVkilu12
p1435
aVKimchi_Kawai
p1436
aVKimiChan
p1437
aVKimiran
p1438
aVKimLiquid
p1439
aVKimMalsu
p1440
aVkinbin0
p1441
aVking of manure
p1442
aVKing00s
p1443
aVKingClueless
p1444
aVKingOKarma
p1445
aVKing_Heart
p1446
aVkinoko-haiki
p1447
aVKinushima
p1448
aVKinuZ
p1449
aVkio22
p1450
aVkira444
p1451
aVKiraiya
p1452
aVkiriBot
p1453
aVkirito willion
p1454
aVKirizaki
p1455
aVKirks
p1456
aVKirowo
p1457
aVKiseyoo
p1458
aVkisizann
p1459
aVKisuke Sama
p1460
aVkitae0905
p1461
aVKitakami Akitsu
p1462
aVKitdude
p1463
aVKitsune Iro
p1464
aVkiyamasennsei
p1465
aVKiz69
p1466
aVKizuato
p1467
aVkkandyu
p1468
aVkl65
p1469
aVkliicx
p1470
aVKlovar
p1471
aVKluu
p1472
aVKluy
p1473
aVKnallsack
p1474
aVKneon_OSU
p1475
aVknight360
p1476
aVKnightcakes
p1477
aVKoamaro
p1478
aVKoby
p1479
aVKoga
p1480
aVKogane-san
p1481
aVkohaku103
p1482
aVkoishiko
p1483
aVKokeNya
p1484
aVKomeiji-Koishi
p1485
aVKomomori
p1486
aVkoneko0311
p1487
aVkonggochi
p1488
aVKonichuwaa
p1489
aVkonp4ku
p1490
aVKonstantine
p1491
aVKonstii
p1492
aVKoob
p1493
aVkooky xi
p1494
aVkoppecraft
p1495
aVKorann
p1496
aVkorean6969
p1497
aVKoreanBBQ
p1498
aVKoroApologize
p1499
aVKOR_Hawk
p1500
aVkousan1221
p1501
aVKousigar
p1502
aVKoutasenseii
p1503
aVkoyappe00
p1504
aVkoyokun4324
p1505
aVKrait
p1506
aVkreph
p1507
aVKRH2678
p1508
aVKrisevol
p1509
aVkrnk819
p1510
aVKroloHD
p1511
aVkromu
p1512
aVkrpark
p1513
aVkrystalt3ar
p1514
aVksh567
p1515
aVKSkun
p1516
aVksm4105
p1517
aVKSM_0301
p1518
aVKueDeng
p1519
aVKuiishii
p1520
aVkulnNO
p1521
aVKulumento
p1522
aVKumoraku - Los
p1523
aVkun52487
p1524
aVkune257
p1525
aVkunka738
p1526
aVKunonn
p1527
aVKupie
p1528
aVKuramaa
p1529
aVKurashinaAsuka
p1530
aVkurinsaku
p1531
aVKuritsu_Akira
p1532
aVKuroIkazuchi
p1533
aVKuroi_Kiryu
p1534
aVkurosu_y
p1535
aVKuro_Bayashi
p1536
aVKury
p1537
aVkusakabe001
p1538
aVkushina on osu
p1539
aVKutsuShita7s
p1540
aVKuzen
p1541
aVKwanWoo
p1542
aVky0kon
p1543
aVkylee07
p1544
aVKyloes
p1545
aVKyogax
p1546
aVKyokona
p1547
aVKyomo
p1548
aVKYONx2
p1549
aVKyon_Zombie
p1550
aVKyouka-Izumi
p1551
aVKyoushouryuu
p1552
aVKypria
p1553
aVkyrastri
p1554
aVkyte2049
p1555
aVKyuubiRan
p1556
aVL A S T
p1557
aVL o v e L i v e
p1558
aVL Taker
p1559
aVL van
p1560
aVl0nda
p1561
aVl6541
p1562
aVla kappacite
p1563
aVLa Promesse
p1564
aVLaa God
p1565
aVLabi
p1566
aVLaguna blaze
p1567
aVLahael
p1568
aVLakine
p1569
aVLamb
p1570
aVLampotaku
p1571
aVLankeee
p1572
aVlaoyiyao
p1573
aVLapis Lazuli
p1574
aVLargeOsu
p1575
aVLASTNOTE
p1576
aVLavadanger
p1577
aVlayzer3
p1578
aVLazosh
p1579
aVla_patatedu88
p1580
aVLe cochon dinde
p1581
aVLeBabouin
p1582
aVLee JaeWon
p1583
aVLee TaeHee
p1584
aVleechee123
p1585
aVleegy7
p1586
aVleehgin
p1587
aVLeemom
p1588
aVleeym0503
p1589
aVLeFort
p1590
aVLegend RaiOn
p1591
aVLegendary black
p1592
aVLegendaryHero
p1593
aVLegentix
p1594
aVlekkel124
p1595
aVLekrio
p1596
aVLemaire
p1597
aVLemon Boy
p1598
aVLemur
p1599
aVLeoDenny
p1600
aVLeotic
p1601
aVLesi
p1602
aVLestie
p1603
aVLeteka
p1604
aVLets No
p1605
aVLettucemMm
p1606
aVli0n3l
p1607
aVliarcat
p1608
aVlibraaa
p1609
aVLifeFireE
p1610
aVLifeOFaPika
p1611
aVLike_Rin
p1612
aVLily68
p1613
aVLilyx3
p1614
aVLinami
p1615
aVlinghailan90
p1616
aVlingscherling
p1617
aVLink00Zelda
p1618
aVLinkrez
p1619
aVLinkshadows
p1620
aVLinku
p1621
aVLinkyy
p1622
aVLino
p1623
aVLinusZhang
p1624
aVlion9816
p1625
aVlionelo
p1626
aVLireax
p1627
aVlisiaa
p1628
aVLisiro
p1629
aVLittleEggman
p1630
aVLittle_pulse
p1631
aVLitty
p1632
aVliunian1551
p1633
aVLivala
p1634
aVLJ0829
p1635
aVLKsets
p1636
aVLleaff
p1637
aVLloydfew
p1638
aVlm2578
p1639
aVLofthesaver
p1640
aVlojopo
p1641
aVLolis life
p1642
aVLolitaro
p1643
aVLoli_like
p1644
aVLOLOL
p1645
aVlolungsgrandus
p1646
aVlonelyling
p1647
aVLordGeek101
p1648
aVLordOfZitrax
p1649
aVlorylove
p1650
aVLostCat
p1651
aVLotrixs
p1652
aVLotty Lin
p1653
aVLovelive
p1654
aVlove_kuroneko
p1655
aVlpz
p1656
aVlssdjw
p1657
aVlth
p1658
aVLua
p1659
aVlucia_soul
p1660
aVLucid-dream
p1661
aVLucosiA
p1662
aVLucyus
p1663
aVlud1e
p1664
aVLugswo
p1665
aVLuGuo
p1666
aVLukas_ye
p1667
aVlukeazoid29
p1668
aVLukkae
p1669
aVLukz0r
p1670
aVlumpy
p1671
aVlunabell
p1672
aVLunarFox
p1673
aVLunetta
p1674
aVluohunpower
p1675
aVLupa
p1676
aVlurked
p1677
aVlus12
p1678
aVLuvShiina
p1679
aVLuzog
p1680
aVlu_minecraft
p1681
aVLyer
p1682
aVLyneyra
p1683
aVLynx Africa
p1684
aVLyuz4ki
p1685
aVlyztyj
p1686
aVLZHJK
p1687
aVM1d0r1n0
p1688
aVM1nt
p1689
aVM1rr0R
p1690
aVM4kA_3
p1691
aVmaaagic
p1692
aVmacadamia928
p1693
aVMace_Yo
p1694
aVMacha_theCat
p1695
aVmachinsa
p1696
aVmachi_4649
p1697
aVMadafii
p1698
aVmadcarrotmans
p1699
aVMadeInChina
p1700
aVMadTinkerer
p1701
aVmadyg1
p1702
aVMaerow
p1703
aVMAFF
p1704
aVmagickev
p1705
aVMaGo_0120
p1706
aVmaguro_221
p1707
aVMah_Si
p1708
aVmainsequence
p1709
aVMaiZhi
p1710
aVMakkaPakka16
p1711
aVMalkiller
p1712
aVmalouxi
p1713
aVMalreen
p1714
aVMalton07
p1715
aVmamoribito
p1716
aVmancron
p1717
aVManDoooh
p1718
aVMangakaMoka
p1719
aVmani6604
p1720
aVmanmanzoku
p1721
aVManzana
p1722
aVMaple Leaf
p1723
aVMapo
p1724
aVmarchRed
p1725
aVMariosZ
p1726
aVMarisaya
p1727
aVmarisa_daze2333
p1728
aVMARKRAM-
p1729
aVmarkuci
p1730
aVMarkyParky04
p1731
aVmaruchan01
p1732
aVmarutaneko
p1733
aVMarxtonwater
p1734
aVMaryBloody
p1735
aVMasoroni
p1736
aVMaster Throne Hecate
p1737
aVmata1344
p1738
aVMatakuu
p1739
aVMathQuestions
p1740
aVMatroc
p1741
aVMatt47045
p1742
aVMattersC
p1743
aVMattisticus
p1744
aVMattre0714
p1745
aVmaturine
p1746
aVmax24GaminG
p1747
aVMaxasau
p1748
aVMaxi2711
p1749
aVMaxim Bogdan
p1750
aVMaximal159
p1751
aVMaxime547
p1752
aVmaxmacskate
p1753
aVMaya34
p1754
aVmayakori
p1755
aVmayora-
p1756
aVmaziko
p1757
aVMBK
p1758
aVMc-Butt
p1759
aVMcSlurry02
p1760
aVMechaMage
p1761
aVMecso
p1762
aVMediakia
p1763
aVMedicinE
p1764
aVmegufox
p1765
aVMegulin
p1766
aVmeguminKOR
p1767
aVMeinHerz
p1768
aVMeirin
p1769
aVMeistoogood
p1770
aVMeitoryu
p1771
aVMellifluous
p1772
aVMelthi
p1773
aVmenhyeon
p1774
aVmeNiklasxD
p1775
aVmentalw
p1776
aVMeoh-
p1777
aVmepbee
p1778
aVMERKELBOi
p1779
aVMerry_Game
p1780
aVMetablase
p1781
aVMetalics
p1782
aVMetoronown
p1783
aVMF Twinky
p1784
aVMGCHerpDerp
p1785
aVmickeynsen
p1786
aVMidgetLittle
p1787
aVMidside
p1788
aVMIGISGOOD
p1789
aVMiidesu
p1790
aVMikanse1
p1791
aVMiko_te
p1792
aVmikualpha
p1793
aVMikuEXPO
p1794
aVMikyMF
p1795
aVMileMile
p1796
aVMilkduckw
p1797
aVMilkk
p1798
aVMillax
p1799
aVmilow_k
p1800
aVmin75200
p1801
aVminamin373
p1802
aVMinase_Inorin
p1803
aVmingamanga
p1804
aVminhhhh
p1805
aVMinimoh
p1806
aVMiniShoey
p1807
aVMino-
p1808
aVMINTIA__ya
p1809
aVMiraiVII
p1810
aVMiranmongo
p1811
aVMircoPasha
p1812
aVmirei_jeb
p1813
aVmiruko-
p1814
aVMisiPPa
p1815
aVMisLin
p1816
aVMissSnowBerry
p1817
aVMisterMin
p1818
aVMisticPlays
p1819
aVMitcheII
p1820
aVMithcair
p1821
aVMiyazaa
p1822
aVMizellow
p1823
aVMizuki Nana
p1824
aVmj020204
p1825
aVmjy9088
p1826
aVmky070707
p1827
aVmmaron
p1828
aVMmmushroomTz
p1829
aVmnmsoup
p1830
aVmocawai
p1831
aVMoDaBro
p1832
aVmodelis
p1833
aVMoering
p1834
aVMoeshi
p1835
aVMofupuni
p1836
aVMoira_Dust
p1837
aVMoistyMalone
p1838
aVMoli
p1839
aVmondot
p1840
aVmongwhan
p1841
aVmonmenma
p1842
aVMonogatari
p1843
aVmonomosc
p1844
aVmoonlight uhhh
p1845
aVmoonlumen
p1846
aVmoonshine00
p1847
aVMoopdi
p1848
aVMooseBloodRPG
p1849
aVMorganyah
p1850
aVmorgn
p1851
aVmosellewine
p1852
aVmota1207
p1853
aVMoting
p1854
aVMotion
p1855
aVMouffin
p1856
aVMountleZz
p1857
aVMouseDestroyer
p1858
aVMouthyFob
p1859
aVmoyaasii
p1860
aVmoyashiPA
p1861
aVMQBadoo
p1862
aVMrBizeps
p1863
aVMrBlueVoid
p1864
aVMrBrwony
p1865
aVmrburnsgaming
p1866
aVMrFluffy
p1867
aVMrKann0n
p1868
aVmrks
p1869
aVMrPringles1
p1870
aVMrSamuraiDragon
p1871
aVmrtmnt
p1872
aVMrW1nter
p1873
aVmrzomb
p1874
aVMr_lowkey
p1875
aVms-06fz
p1876
aVMsD_Mafufu
p1877
aVmsstem1899
p1878
aVmugicya1127
p1879
aVmukaitou
p1880
aVMuranieum
p1881
aVMurasaaki
p1882
aVMurumuru107
p1883
aVmusantty
p1884
aVMuseoum
p1885
aVmutsuboom
p1886
aVmuxosk
p1887
aVMuy
p1888
aVMVP
p1889
aVMy Aim Trash
p1890
aVMy Little Pony
p1891
aVMya3
p1892
aVMyAngelsakiyi
p1893
aVmyb0104
p1894
aVMyko
p1895
aVMykwl
p1896
aVmylhzy01
p1897
aVMyMouseCanDrift
p1898
aVMynameisRaiken
p1899
aVmysmiro9
p1900
aVMyst
p1901
aVMysterious_Red
p1902
aVMysteriXHeroine
p1903
aVmyu-zin
p1904
aVMywe
p1905
aVM_C- [JP]
p1906
aVM_H_Vlad
p1907
aVN3xT
p1908
aVN4STYB0Y
p1909
aVnablop
p1910
aVNadeoki
p1911
aVNadji
p1912
aVNaep0z
p1913
aVNaightymare
p1914
aVNailBeast
p1915
aVNaiZooooo
p1916
aVNakasu Kasumi
p1917
aVNalkya
p1918
aVNam
p1919
aVnameJeph
p1920
aVNamenoteNew
p1921
aVNamGle
p1922
aVNamikuno
p1923
aVnamsandwich
p1924
aVNamYap
p1925
aVnanahiraisgood
p1926
aVnanana
p1927
aVNaoki Miki
p1928
aVNaoshika
p1929
aVNapeFR
p1930
aVnarani
p1931
aVnard
p1932
aVNares
p1933
aVNasaiKare
p1934
aVnashikiri
p1935
aVnaslime
p1936
aVnate boy
p1937
aVNatuking74
p1938
aVNaushika
p1939
aVnba000m
p1940
aVneclord592
p1941
aVNeiko
p1942
aVNEK4
p1943
aVNeko Destroyer
p1944
aVneko192
p1945
aVnekomiya-hinata
p1946
aVNekomup
p1947
aVNekou
p1948
aVNekuro_55
p1949
aVNemOpoulet
p1950
aVnemuiyo_leo
p1951
aVNeoka
p1952
aVneon3go
p1953
aVNeoUser
p1954
aVNeox3_3
p1955
aVNEP-Biek
p1956
aVNeptunelin
p1957
aVNepuri
p1958
aVnerfdude5
p1959
aVnester1236
p1960
aVNever Be Mad
p1961
aVNeverClear
p1962
aVnextplay
p1963
aVNeyzoh
p1964
aVNGNL_Sora_a
p1965
aVngoc_anthony
p1966
aVnguy200
p1967
aVngyno1
p1968
aVnheimis
p1969
aVnhud
p1970
aVnicknme
p1971
aVNickyLiang
p1972
aVNickyzj
p1973
aVNicoES
p1974
aVNicomator
p1975
aVnicotap
p1976
aVNicss
p1977
aVNictreekai
p1978
aVNierth
p1979
aVNightart
p1980
aVNightmareJenny
p1981
aVNightRealZ
p1982
aVNightstarReaper
p1983
aVNightwso
p1984
aVNigihayami
p1985
aVnihiliti
p1986
aVNihility
p1987
aVNikorasou
p1988
aVnikotori
p1989
aVNinja Banane
p1990
aVNinjaCoktail
p1991
aVNinsanity
p1992
aVNinsto
p1993
aVNinty
p1994
aVNioav
p1995
aVNIoumy
p1996
aVNirbanch
p1997
aVNirtroR
p1998
aVNisekoi
p1999
aVNishl
p2000
aVNixgNot
p2001
aVnkblhn
p2002
aVNnastaslook
p2003
aVNo Aim No Life
p2004
aVNo Luck
p2005
aVNoaGBG
p2006
aVNoamadeus
p2007
aVNodocchi
p2008
aVNoelBestLoli
p2009
aVnoir1234
p2010
aVNokatarasse
p2011
aVNoka_a
p2012
aVNoma5052
p2013
aVnomokona
p2014
aVnoname128
p2015
aVNoobs
p2016
aVnoopi753
p2017
aVNorame
p2018
aVnori33
p2019
aVNorko
p2020
aVNosmellykids
p2021
aVNoSoupfOu
p2022
aVNossie
p2023
aVNosu
p2024
aVNot Jeef
p2025
aVNotABox
p2026
aVnotcarry
p2027
aVNoteKuroi
p2028
aVNoteTool
p2029
aVNotGudxi
p2030
aVnotverriegod
p2031
aVnotyourwaifu
p2032
aVNoxEditing
p2033
aVNoya
p2034
aVNOZI
p2035
aVNo_Mine
p2036
aVnr_pm
p2037
aVntjghjy
p2038
aVNublin
p2039
aVNuhter
p2040
aVnuko8845
p2041
aVNull_void
p2042
aVNum5119
p2043
aVNumbah
p2044
aVNyakochi
p2045
aVNyango Star2
p2046
aVnyankey777
p2047
aVNyanya
p2048
aVNybu 1
p2049
aVNymia
p2050
aVNyraCalico
p2051
aVNyracia
p2052
aVNyuX
p2053
aVNyxtrn
p2054
aVNzrazor
p2055
aVO02
p2056
aVOalhenaO
p2057
aVObama
p2058
aVObamasKintamas
p2059
aVObesityNinja78
p2060
aVObSiiN
p2061
aVOcito
p2062
aVOffucia
p2063
aVoh yes
p2064
aVOhDreams
p2065
aVohhdalsuu
p2066
aVohio0925
p2067
aVohmyga
p2068
aVohmygo
p2069
aVoINDEXo
p2070
aVoistin
p2071
aVojwj5505
p2072
aVOkane
p2073
aVOkay
p2074
aVOkinterry
p2075
aVokotan
p2076
aVokye
p2077
aVok_hand
p2078
aVOldChild
p2079
aVOLDMANOLI
p2080
aVoLize
p2081
aVolsi995
p2082
aVomegaridley
p2083
aVOmjihn
p2084
aVOmniterran
p2085
aVOnchigo
p2086
aVOne Miss Man
p2087
aVOne Salty Ghost
p2088
aVOneEdgyBoi69
p2089
aVONEGRAM
p2090
aVOnehope
p2091
aVOni Fozzie Chan
p2092
aVOnion On Belt
p2093
aVonlice1
p2094
aVono03
p2095
aVOnyonSwomp
p2096
aVoohily
p2097
aVookamikodomo
p2098
aVopaaaa9
p2099
aVopako
p2100
aVOperation Skuld
p2101
aVOpinionism
p2102
aVOpti
p2103
aVOPWO_-_-_-_-
p2104
aVOra
p2105
aVOrage
p2106
aVOrangelightning
p2107
aVOrekieh
p2108
aVoriaca372m
p2109
aVOrilak
p2110
aVOritori
p2111
aVorrca
p2112
aVOrukiMyoru
p2113
aVosamasa
p2114
aVoss0181
p2115
aVOstaPeice
p2116
aVosuInventin
p2117
aVosususus
p2118
aVotgw
p2119
aVOTORIA
p2120
aVOVanillaO
p2121
aVOVER YOU
p2122
aVoverimage6249
p2123
aVoverwatchsfdd
p2124
aVowo
p2125
aVOwObama
p2126
aVOxystyle
p2127
aVozzysun
p2128
aVP1gh
p2129
aVpaarthursnaxx
p2130
aVPabloescxbxr
p2131
aVpaceleste
p2132
aVPaffyWaff
p2133
aVPahogagist
p2134
aVPaisho
p2135
aVPaKangE
p2136
aVPancake_Syrup
p2137
aVPandaSenpaix
p2138
aVpanpaka_kaishi
p2139
aVPanthor
p2140
aVpapikoo
p2141
aVPareo
p2142
aVpark young jin
p2143
aVParkPlace
p2144
aVparousia
p2145
aVPartySpeaker
p2146
aVParvati
p2147
aVPassed Elk
p2148
aVPass_BAD_
p2149
aVPastatown
p2150
aVpastel_jp
p2151
aVPastevga
p2152
aVPatattarde
p2153
aVPatchou
p2154
aVpatr20
p2155
aVPaulK
p2156
aVPawPawCream
p2157
aVpayaoooo
p2158
aVPeanat
p2159
aVpegpegv
p2160
aVPendonium
p2161
aVPentaFish
p2162
aVPepino
p2163
aVPepito
p2164
aVperatC
p2165
aVPergaeyon
p2166
aVpetz0624
p2167
aVpexium
p2168
aVPeyturtle
p2169
aVPF_Hollow
p2170
aVPGREAT
p2171
aVPhantomKnight
p2172
aVPhantozs
p2173
aVPheyl
p2174
aVphilisophic
p2175
aVPhilos
p2176
aVphoto124731
p2177
aVPia
p2178
aVpierreCHT
p2179
aVPigeonBoy27
p2180
aVPiggiue
p2181
aVPiggy
p2182
aVPillow Ghost
p2183
aVPinkmind
p2184
aVPinyin7
p2185
aVPixelEduard
p2186
aVPixelgamer1905
p2187
aVPIYOMETAL
p2188
aVpksmksmk
p2189
aVPLANT
p2190
aVPlan_C_
p2191
aVPlatinum200
p2192
aVPlatinumFuzzy
p2193
aVPlaudible
p2194
aVplay7530
p2195
aVPlayerthefirst
p2196
aVPlayzActive
p2197
aVPlek
p2198
aVPLOXYPORO
p2199
aVPLUS ULTRA
p2200
aVPlymex
p2201
aVpoidabread
p2202
aVPoiOsuu
p2203
aVpokru
p2204
aVpolishguy123
p2205
aVPoltergeistV
p2206
aVpomu0326
p2207
aVPonchanchan
p2208
aVPoncho
p2209
aVPoNo
p2210
aVpootwoot
p2211
aVpophs963
p2212
aVpoptartneko
p2213
aVpostofficer
p2214
aVpotejin
p2215
aVpoufpouf
p2216
aVpoulpy
p2217
aVpoutaine
p2218
aVpower0105149
p2219
aVpp446485254
p2220
aVpp447576
p2221
aVPR0 F3550R
p2222
aVPrage
p2223
aVpraiselee
p2224
aVPratasia
p2225
aVPrimaryZ_
p2226
aVprimense
p2227
aVPriscilla
p2228
aVPrismaIllya
p2229
aVPristine Toast
p2230
aVprivatecaboose
p2231
aVpro boxer-MATSU
p2232
aVprodJemzent
p2233
aVProfitBirb
p2234
aVProgFan1973
p2235
aVProgressiveStar
p2236
aVprohibit
p2237
aVProvenSneeze333
p2238
aVPsnowy
p2239
aVPsychoactive
p2240
aVPsykoNOT
p2241
aVPunch Line
p2242
aVPunovski
p2243
aVPuppet Master
p2244
aVPwn
p2245
aVPypj
p2246
aVPyryu
p2247
aVPytch
p2248
aVp_ske_q
p2249
aVq1214z339
p2250
aVq276249044
p2251
aVqazx2
p2252
aVQhaizi
p2253
aVqiluo
p2254
aVqiujie7
p2255
aVqizhqi
p2256
aVqjaehddk3
p2257
aVqkrgusrb46
p2258
aVQlocks
p2259
aVqoddj
p2260
aVqoke
p2261
aVqowlsrhks
p2262
aVQuad_Z
p2263
aVquanhitter37
p2264
aVQueenCaffeine
p2265
aVQuesMe
p2266
aVquyeen
p2267
aVQvn
p2268
aVqwe130169
p2269
aVqwe574628132
p2270
aVR a B i R i S
p2271
aVr o c k k
p2272
aVR3shi
p2273
aVR4xJKT
p2274
aVRa1nbowDesuu
p2275
aVRachie
p2276
aVradip
p2277
aVRaeigis
p2278
aVRafale721
p2279
aVrag
p2280
aVRagePlayer123
p2281
aVRagezeus
p2282
aVrahuna
p2283
aVRAIDEXED
p2284
aVrain as cure
p2285
aVRain Maker
p2286
aVrain ye
p2287
aVRainbowChaos
p2288
aVRaizeGear
p2289
aVraizoar
p2290
aVRaM732
p2291
aVRaminator7
p2292
aVramtin
p2293
aVRandomguy1456
p2294
aVRanRanPrettyPig
p2295
aVRaokawa
p2296
aVrasi
p2297
aVRasis-
p2298
aVRatchekaz
p2299
aVRaydra
p2300
aVrayfa33
p2301
aVRayfry
p2302
aVRaymondN
p2303
aVRaynbow
p2304
aVRaze_Sora
p2305
aVrcady
p2306
aVRD_RD
p2307
aVre1mu
p2308
aVreanoba
p2309
aVReaZeX
p2310
aVRecent
p2311
aVReclude
p2312
aVreco117
p2313
aVred3744
p2314
aVRedeck
p2315
aVRedFury
p2316
aVRedrawnant
p2317
aVRedSoulHunter
p2318
aVRedstone
p2319
aVReecho
p2320
aVrefinas
p2321
aVReFunnn
p2322
aVReggiegigas
p2323
aVRegios
p2324
aVReiga
p2325
aVReiiiatsu
p2326
aVRein_Liya
p2327
aVReiya
p2328
aVREKA001
p2329
aVrekii
p2330
aVreko
p2331
aVRelaxyo
p2332
aVRemag
p2333
aVRemilia o9
p2334
aVRemlia Scarlet
p2335
aVremoveturk
p2336
aVRemuThirA
p2337
aVRen97
p2338
aVrendamuri
p2339
aVRenfi
p2340
aVRengedzix
p2341
aVrenta80555
p2342
aVResemblance
p2343
aVreshiramS
p2344
aVResistanceStew
p2345
aVRespe
p2346
aVRetarded
p2347
aVRetark
p2348
aVReturns80
p2349
aVReun5
p2350
aVRevain-
p2351
aVRevolt
p2352
aVRev_Ice
p2353
aVRewben2
p2354
aVRewek
p2355
aVReytep
p2356
aVRezonance
p2357
aVRe_Znseemm6
p2358
aVRhythmus
p2359
aVRHYTHM_
p2360
aVRicelovelove
p2361
aVRickylily
p2362
aVRiiitzo
p2363
aVRijrya
p2364
aVRiname
p2365
aVrincatcat
p2366
aVRineria
p2367
aVRingenne
p2368
aVRINGUMA908
p2369
aVRinsh
p2370
aVrintae
p2371
aVRiriel
p2372
aVritue
p2373
aVrlawldyd5
p2374
aVRNAyy
p2375
aVrnqqx
p2376
aVrnrmsgud13
p2377
aVRoboterXL
p2378
aVRobotVanpire
p2379
aVRockrannn
p2380
aVroflmaster99
p2381
aVrojabel
p2382
aVRokioSensei
p2383
aVRonRon_1121
p2384
aVRotiboisserie
p2385
aVRotus
p2386
aVRouxiie
p2387
aVrovignia
p2388
aVRqZeL
p2389
aVRRRyanZ
p2390
aVRsIoT
p2391
aVRsuZc
p2392
aVRTSpower
p2393
aVrubbertoe
p2394
aVRubixor
p2395
aVRumia-Desu
p2396
aVRumors
p2397
aVrunshin
p2398
aVRu_ta
p2399
aVryaks90
p2400
aVryAnc
p2401
aVRylet
p2402
aVRyukiv
p2403
aVRYUNK
p2404
aVRYUSUB
p2405
aVryuusei144
p2406
aVryuuyu
p2407
aVRyxxal
p2408
aVRyynn
p2409
aVRyyuuuL
p2410
aVRyzuul
p2411
aVR_M30
p2412
aVS a b e r
p2413
aVS Realiti
p2414
aVS T O N E
p2415
aVS1NSWRATH
p2416
aVs6e9x
p2417
aVsaasdqwe
p2418
aVsaber-lion
p2419
aVSaberExcalibur
p2420
aVSachikoChan
p2421
aVSacrofique
p2422
aVSadaharu-Kun
p2423
aVsadandbored
p2424
aVSadoMari
p2425
aVSAEUKKANG
p2426
aVSaid_Meow
p2427
aVSaikenAsukito
p2428
aVSailor Moon
p2429
aVSajinn
p2430
aVSakamaki Izayoi
p2431
aVsakanaA
p2432
aVSakura lili666
p2433
aVSakura Momo
p2434
aVSakuraneko
p2435
aVsakurann523
p2436
aVsaladinpower
p2437
aVsalcheon
p2438
aVSalguhyang
p2439
aVSalivanth
p2440
aVSaltyDonnut
p2441
aVSaltyFurry
p2442
aVSamburke
p2443
aVsamp1e
p2444
aVsanairrt
p2445
aVSanawi
p2446
aVSancora
p2447
aVSandCream
p2448
aVSandonez123
p2449
aVSandty420
p2450
aVSanle
p2451
aVSansnaka
p2452
aVSansu
p2453
aVSAO-Blu3rity-II
p2454
aVsaoie
p2455
aVsapipo
p2456
aVSarahIsWeird
p2457
aVSariadesu
p2458
aVSarynera
p2459
aVSatori_TL
p2460
aVSatoryas
p2461
aVSatoshixz-kun
p2462
aVSatotomo
p2463
aVSauprix
p2464
aVsawaken0214
p2465
aVSawatariMakoto
p2466
aVSax
p2467
aVSayNoToStim
p2468
aVSayohlol
p2469
aVSayune
p2470
aVSayuri-Hime
p2471
aVSc06_
p2472
aVScapegoat4
p2473
aVScared_to_death
p2474
aVscbbltey
p2475
aVschnauzer8118
p2476
aVScienceRhythm
p2477
aVscramblr
p2478
aVScreamingPsy
p2479
aVScroof
p2480
aVScuba Steve
p2481
aVScyckl
p2482
aVScypiker
p2483
aVsd020908
p2484
aVsd8109
p2485
aVseanphililil
p2486
aVsearching 14
p2487
aVseawave
p2488
aVSecondDimension
p2489
aVSedixed
p2490
aVseebal12
p2491
aVSeeKerZ
p2492
aVseekodo
p2493
aVSeelder
p2494
aVseija123
p2495
aVSeiyaYuki
p2496
aVSekki
p2497
aVSelisi
p2498
aVsenbaturu
p2499
aVSenePlays
p2500
aVSenjougahara H
p2501
aVSenkensha
p2502
aVSenpaipai
p2503
aVSensy
p2504
aVSenuSen
p2505
aVSephie
p2506
aVSephrit
p2507
aVSeQaLy
p2508
aVserfitio
p2509
aVSergmcgee
p2510
aVSerlous
p2511
aVSeryu
p2512
aVSeuIgi
p2513
aVSeuumi
p2514
aVSeverance89
p2515
aVSfddd
p2516
aVSFoxy
p2517
aVsfxtz
p2518
aVsgg5857
p2519
aVSh0t4n
p2520
aVShaa
p2521
aVShad0wWolf
p2522
aVShadow Queen
p2523
aVShadowciaw
p2524
aVshadowknight576
p2525
aVShadowRin
p2526
aVShallICompareThee
p2527
aVShamm0187
p2528
aVShaolinbro
p2529
aVshaq_fu
p2530
aVShatnine
p2531
aVShavenAlpaca
p2532
aVShaxime
p2533
aVshebudefei
p2534
aVsheephal
p2535
aVShelter
p2536
aVSherika
p2537
aVSherkan
p2538
aVShi To Raiba
p2539
aVShickon
p2540
aVShigate
p2541
aVshigatsu-
p2542
aVshigurin
p2543
aVShiironix
p2544
aVShiiryo
p2545
aVShinageri
p2546
aVShinki
p2547
aVShinnosha
p2548
aVShinobuNunotaba
p2549
aVshinobushinobu
p2550
aVshinybones
p2551
aVShio_mine
p2552
aVshiraish
p2553
aVShiraitsuki
p2554
aVshiranaisu
p2555
aVShirioo
p2556
aVShiro Kuuhaku
p2557
aVShiroiin
p2558
aVShiroKamiSan
p2559
aVshironekos
p2560
aVShivaa24
p2561
aVshivhawk
p2562
aVshiwodeweiyi520
p2563
aVshizuka1302
p2564
aVShiZuKuRuRi
p2565
aVshm0124
p2566
aVShoco_lol
p2567
aVshopshopshop
p2568
aVShoujo Byou
p2569
aVshouka0
p2570
aVShouziha
p2571
aVshowerpiss
p2572
aVShredded
p2573
aVshuang3093
p2574
aVShuku
p2575
aVShut-Up
p2576
aVShyeS
p2577
aVShymial
p2578
aVShyse
p2579
aVShyzuneJet
p2580
aVSigma_Z
p2581
aVSiIent
p2582
aVSiilver
p2583
aVsikigami454
p2584
aVSilent Blizzard
p2585
aVSilKey
p2586
aVSilverKnight
p2587
aVSILVIAR
p2588
aVsimone28
p2589
aVsindouaika
p2590
aVsiniiiigg
p2591
aVsinisterpure
p2592
aVSinoaz
p2593
aVSinon_ii
p2594
aVSINZAE
p2595
aVSiolia
p2596
aVsion301
p2597
aVSirNicolas
p2598
aVsirnit
p2599
aVSirokuma-
p2600
aVsiromame999
p2601
aVSir_Jaymie
p2602
aVsisrun
p2603
aVSiverans
p2604
aVsizoo100
p2605
aVsjh0626
p2606
aVsjhyun11
p2607
aVsjwon0430
p2608
aVsjy07133
p2609
aVSkallywag29
p2610
aVske-_-
p2611
aVSkemmer
p2612
aVSkidbladnir
p2613
aVskielred
p2614
aVSkillzOtaku
p2615
aVSkippytbk
p2616
aVskiy12
p2617
aVskouikobandit
p2618
aVSkullBoi159
p2619
aVSkyeCst
p2620
aVSkylark7
p2621
aVSkylerdog123
p2622
aVskyrimgamer1
p2623
aVSkyron
p2624
aVSkyWearS
p2625
aVSkyZoF
p2626
aVSlackyo
p2627
aVSlashNDash
p2628
aVslayer1900
p2629
aVSlenderWard
p2630
aVSlideBreakKing
p2631
aVSlider Break
p2632
aVSliq
p2633
aVSlo78
p2634
aVsmall fish
p2635
aVSmall White C
p2636
aVSmayay
p2637
aVsmellsky
p2638
aVSmNcKyG
p2639
aVSmoke_Corvus
p2640
aVSnaggy
p2641
aVSneakyRagnar
p2642
aVsnickertit
p2643
aVSnithers
p2644
aVSnoozingCookie
p2645
aVSnoper48
p2646
aVsnowcat
p2647
aVSnowfait
p2648
aVSnOwO
p2649
aVSnowymn
p2650
aVsoad29
p2651
aVSobble
p2652
aVSockYT
p2653
aVsodagrap
p2654
aVsodame02
p2655
aVSoft Pudding
p2656
aVSogwa
p2657
aVsokkyoku
p2658
aVsola965
p2659
aVSolaureus
p2660
aVsomayukilala
p2661
aVSome Duck
p2662
aVsomin0606
p2663
aVSong Seol A
p2664
aVsongjun
p2665
aVsonicboomspartn
p2666
aVsonicyolol
p2667
aVSONOHANA
p2668
aVSonPenPa
p2669
aVSoph
p2670
aVSoramon
p2671
aVsoranoyu
p2672
aVsorasora30
p2673
aVSoror_Istary
p2674
aVSoryoz
p2675
aVSoSo93
p2676
aVSoticeMeNenpai
p2677
aVSoToy
p2678
aVsouichi3
p2679
aVSoul yaktal
p2680
aVSoul-
p2681
aVSoul
p2682
aVSoulessness
p2683
aVSoulz
p2684
aVsounomi
p2685
aVSoviet flame
p2686
aVsowcome
p2687
aVsparspar
p2688
aVSpatiaL
p2689
aVSpeedii
p2690
aVSpeedyTony
p2691
aVSpexyyy
p2692
aVSpriteYoshi
p2693
aVspRtN117
p2694
aVSquirme
p2695
aVSquishu
p2696
aVsrs
p2697
aVSSbountyy
p2698
aVssentury
p2699
aVSSkun
p2700
aVST34KWTF
p2701
aVStaniaEitte
p2702
aVStarKick
p2703
aVstarnighty
p2704
aVstarpenguins
p2705
aVStarpixo
p2706
aVstealthpaw
p2707
aVSteins0Gate
p2708
aVsteno3
p2709
aVsteven911111111
p2710
aVstevenprica
p2711
aVStinger
p2712
aVStolzerDrache
p2713
aVstorkhan
p2714
aVstoryy
p2715
aVstraeyoung
p2716
aVSTRAR
p2717
aVStrawberry Cake
p2718
aVstrawberrymind
p2719
aVStrikeon
p2720
aVStruz
p2721
aVStuehlchen
p2722
aVStunterLetsPlay
p2723
aVStupidDK
p2724
aVstw1112
p2725
aVsuc
p2726
aVSUCCBOI
p2727
aVSuccForMoneys
p2728
aVSuchtey
p2729
aVSuckmo
p2730
aVsue sue sue
p2731
aVsuemaso
p2732
aVSugarCloudy
p2733
aVSukikurumi
p2734
aVsular
p2735
aVSun Rainbow
p2736
aVSunao Nako
p2737
aVSungJu27
p2738
aVSunny_zx
p2739
aVSuoh
p2740
aVsuper zero
p2741
aVSuperAntbuster
p2742
aVSupercowbro
p2743
aVsuperjiayu123
p2744
aVSuperKayus
p2745
aVsuperknals
p2746
aVSuperLegendary
p2747
aVSupersonic12
p2748
aVSupImDos
p2749
aVsuwaton
p2750
aVSuyeon-Lee
p2751
aVSuzukiYukina
p2752
aVSwansky
p2753
aVSweetCukes_
p2754
aVSweetStone
p2755
aVsweety322
p2756
aVSwitt78
p2757
aVSxgiriX
p2758
aVsyank1
p2759
aVsyboru
p2760
aVSyden
p2761
aVsyhsyh
p2762
aVSykerTV
p2763
aVSykronik
p2764
aVSyldraTheCat
p2765
aVsynderes
p2766
aVSynthese
p2767
aVsyptix
p2768
aVsystem32
p2769
aVS_inverarity
p2770
aVT e n s a i
p2771
aVt0Fu
p2772
aVT0ra
p2773
aVT4-
p2774
aVt42427878
p2775
aVT508
p2776
aVTA1_Butcher
p2777
aVTabletOnOsu
p2778
aVTachibanaK
p2779
aVTacosniper
p2780
aVTaessicaDae
p2781
aVTaiga Tenori
p2782
aVTakei Hisa
p2783
aVTakenTOME
p2784
aVTakumiBoi
p2785
aVTakut
p2786
aVTakuto-San
p2787
aVTakuto
p2788
aVTal Mo
p2789
aVTallyhoz
p2790
aVtamaki
p2791
aVtamako33
p2792
aVtamatamadex
p2793
aVtanasyo0207
p2794
aVTANKYFROG
p2795
aVTante Meira
p2796
aVTANUPO1116222
p2797
aVTapiocaOAO
p2798
aVTaps
p2799
aVtar4561
p2800
aVTaranto18
p2801
aVtarui
p2802
aVTarumi
p2803
aVTaurusXSilver
p2804
aVTazzie
p2805
aVTCF Umiko
p2806
aVTeamateR
p2807
aVTeardrops
p2808
aVtechi
p2809
aVtemichan
p2810
aVTemmie233
p2811
aVTemprrr
p2812
aVTemu
p2813
aVtenderne
p2814
aVTengu
p2815
aVTensukee
p2816
aVTeRiRi
p2817
aVTerranorm
p2818
aVTerrie
p2819
aVTestyDonut
p2820
aVTetMax
p2821
aVTexas
p2822
aVThailoAI
p2823
aVthanatosx91
p2824
aVThe Delay
p2825
aVthe lica of unknown
p2826
aVThe-Dawn
p2827
aVTheAlecai
p2828
aVTheAnimatedDuck
p2829
aVthebandit56
p2830
aVTheBoiCold
p2831
aVthecooperhouse
p2832
aVtheepicalninja
p2833
aVTheEv0lution
p2834
aVthekillerhjkhjk
p2835
aVTheKingSol
p2836
aVTheKoreanPlayer
p2837
aVTheLoneFam
p2838
aVTheMagicGiraffe
p2839
aVTheMaxou2004
p2840
aVTheML69
p2841
aVTheOddDogg
p2842
aVThePro365
p2843
aVTheRiceFace
p2844
aVTheRiceHeist
p2845
aVTheSoraGaming
p2846
aVThetaSigmaPi
p2847
aVthevirrain
p2848
aVThexo
p2849
aVthey
p2850
aVThe_Glorymaster
p2851
aVTHE_NOOB112
p2852
aVThe_Real_Marvel
p2853
aVThibaud379
p2854
aVThibma
p2855
aVThiccBoiWeeb
p2856
aVThicc_Doggo
p2857
aVThigh
p2858
aVThis is Great
p2859
aVthom4sdugbv
p2860
aVThorn_Yui
p2861
aVthslrrnt
p2862
aVThunkichud
p2863
aVThye
p2864
aVTialls
p2865
aVtianl
p2866
aVTigre de poche
p2867
aVTilto Laggins
p2868
aVTime
p2869
aVTimetoFail
p2870
aVtimyym2
p2871
aVTinKanpi
p2872
aVTinnyk
p2873
aVTinyBob
p2874
aVtiples1
p2875
aVTirace
p2876
aVtirigami
p2877
aVTisuru
p2878
aVTixart
p2879
aVtjddnjs0307
p2880
aVtjssujjkl
p2881
aVtlatmd19
p2882
aVtldvkdqkd
p2883
aVTLGAME
p2884
aVTN9K5RL
p2885
aVtnfei
p2886
aVtngh8959
p2887
aVToaruOrz
p2888
aVTobichi Origami
p2889
aVTobirama
p2890
aVtoekeno
p2891
aVtoka ftw
p2892
aVtokibuta
p2893
aVTomateFantome
p2894
aVTomKNoHumi
p2895
aVTommyB
p2896
aVtomo0o0
p2897
aVTomoki Kuroki
p2898
aVTomyLeFaux
p2899
aVtonktsu
p2900
aVTonotho
p2901
aVtoodel
p2902
aVTool EK-Go Ken
p2903
aVToonmasta
p2904
aVTopVein
p2905
aVtoraneko17
p2906
aVToru-kun
p2907
aVtoshihiro
p2908
aVToshinou Kyoko
p2909
aVTotallynotdrug
p2910
aVTotallyNotJon
p2911
aVToukchunni
p2912
aVTower
p2913
aVToxic_L1ghtZ
p2914
aVTr1pzy
p2915
aVTrackloder
p2916
aVTreggom
p2917
aVTRG21QSQS
p2918
aVTRIKN
p2919
aVTripGame_10
p2920
aVtristanthet
p2921
aVTrollaholical
p2922
aVTRPHD
p2923
aVTrueLemon
p2924
aVTrustOtaku
p2925
aVTS7
p2926
aVTschiar
p2927
aVtseven01
p2928
aVTSM DAIRASU
p2929
aVTSM KillStealer
p2930
aVTSPO0626
p2931
aVTsubasaZ025
p2932
aVtsuka
p2933
aVTSUKIARAWA
p2934
aVTsukinami
p2935
aVTsuna5
p2936
aVTsuriiko_
p2937
aVtsuta
p2938
aVtt11tt22
p2939
aVttukbaegikiller
p2940
aVtu2ru-M
p2941
aVTub4Sa
p2942
aVtubasa hirogete
p2943
aVTubbsTheFat
p2944
aVTuersteher
p2945
aVturnbf
p2946
aVTurtelkill
p2947
aVturtlez
p2948
aVTurtle_Magic_1
p2949
aVturubaka1234
p2950
aVtuyanaruga
p2951
aVtwigasaurus
p2952
aVTwitchyAU
p2953
aVTwizy
p2954
aVtxy114114
p2955
aVty8884
p2956
aVTyler
p2957
aVtyler13246523
p2958
aVTyler2FTW
p2959
aVTyrone
p2960
aVTZ_ASTRA
p2961
aVt_t_0000
p2962
aVUchida Maaya
p2963
aVudonCh4n
p2964
aVUGZOcker
p2965
aVuick
p2966
aVuider
p2967
aVUkatoXD
p2968
aVUkiho
p2969
aVUkino_kirin
p2970
aVULG Steenorio_
p2971
aVulg
p2972
aVUlquiorra Lee
p2973
aVultimate_geeky
p2974
aVUltrabusta
p2975
aVUltraMoony
p2976
aVUmaru Doma
p2977
aVUncle Tobys
p2978
aVUnconquered
p2979
aVundisilver
p2980
aVUnfound
p2981
aVUni2SaH
p2982
aVUnitG
p2983
aVUniverse
p2984
aVunkchan
p2985
aVUnN1Capable
p2986
aVunrealodin
p2987
aVuouououo
p2988
aVusachiy
p2989
aVusernamejsy
p2990
aVUsernotname
p2991
aVUtahaKasuml
p2992
aVUvovSimon
p2993
aVV-anilla_
p2994
aVValkyrieJACK
p2995
aVValou60610
p2996
aVValt
p2997
aVvan1a
p2998
aVVanshment
p2999
aVVaporeonGod
p3000
aVvazerd
p3001
aVVdo66
p3002
aVvegeteaux
p3003
aVVekk
p3004
aVVensi
p3005
aVVermii
p3006
aVVerse
p3007
aVVersus13
p3008
aVVery bad player
p3009
aVvery not good
p3010
aVVezuve
p3011
aVVe_A_Dormir
p3012
aVViciii
p3013
aVvicoas
p3014
aVVicyriss
p3015
aVVierundsiebzig
p3016
aVvieux
p3017
aVVignette S22
p3018
aVvikala
p3019
aVVilen
p3020
aVvince186
p3021
aVViperr
p3022
aVVIRJER83
p3023
aVVito34
p3024
aVvNurofen
p3025
aVvoid fate
p3026
aVVolac
p3027
aVVoyage 1969
p3028
aVvqz
p3029
aVvr00style
p3030
aVvyknight
p3031
aVVyYui
p3032
aVW0LFF
p3033
aVWa Pa Pow
p3034
aVWackawacka44
p3035
aVWafflecopta
p3036
aVWaffles-
p3037
aVwagyub
p3038
aVwakomo
p3039
aVwambofett
p3040
aVWandreer
p3041
aVwangjunhao
p3042
aVWantPrinzThighs
p3043
aVwariore
p3044
aVwarpgtp
p3045
aVWatermelon_Jun
p3046
aVWaterStone
p3047
aVWayHao
p3048
aVWayl123
p3049
aVWayxen_49
p3050
aVWAZA1
p3051
aVWeebman
p3052
aVwEeSnAw-xP
p3053
aVweezildude
p3054
aVWeirdChamp
p3055
aVwek
p3056
aVwhaaj531
p3057
aVWham
p3058
aVwhaticanthear
p3059
aVwhip-it
p3060
aVWHITE COMB
p3061
aVWhite Lesbian
p3062
aVWhiteArrow159
p3063
aVWhiteCat
p3064
aVWhiteLightninq
p3065
aVWhiteria
p3066
aVWhite_Crazy
p3067
aVWhite_sou
p3068
aVWhitoken
p3069
aVwhoim
p3070
aVWhoisawsome
p3071
aVWIckdCow
p3072
aVWickdness
p3073
aVWickedWok
p3074
aVwildcats15
p3075
aVwindingpath
p3076
aVWindshear
p3077
aVWinfly
p3078
aVWinnTR
p3079
aVWippinho
p3080
aVWizaRD0]
p3081
aVWiztak
p3082
aVwjsdlfgns
p3083
aVwjsgycjs145
p3084
aVwjsxnwh
p3085
aVwll654
p3086
aVwNky
p3087
aVwodloo
p3088
aVWolfyy
p3089
aVWorsl
p3090
aVWorthless36
p3091
aVwqzwqz111
p3092
aVWRAXU-HANZO
p3093
aVWrite
p3094
aVws3from17
p3095
aVwsmx
p3096
aVWTF tf ASF
p3097
aVwu ming ren
p3098
aVWubz
p3099
aVWuhBruhh
p3100
aVWutever
p3101
aVWuYilcft
p3102
aVwuyu-speechless
p3103
aVwuyuxin
p3104
aVWu_Henly
p3105
aVxXRektSaiXx
p3106
aVXxsushicraftxX
p3107
aVxXVivagoXx
p3108
aVxxxholic99
p3109
aVxXxProKill
p3110
aVxyFredyson
p3111
aVxYILIUx
p3112
aVXyrax Alaria
p3113
aVXyzt1996
p3114
aVXZblue
p3115
aVXzode
p3116
aVxzonekos
p3117
aVy a y a
p3118
aVY u k i n a
p3119
aVy0wri
p3120
aVYaber
p3121
aVYami-Ryu
p3122
aVYami_Dyyy
p3123
aVyamrik
p3124
aVyana-_Ari3
p3125
aVYana8901
p3126
aVYandXD
p3127
aVYangFeihoooo
p3128
aVyannic12312
p3129
aVYannick on osu
p3130
aVyateson
p3131
aVYawn PK3
p3132
aVYayaka
p3133
aVYazn
p3134
aVYchorai
p3135
aVyellayella
p3136
aVyellow_fire
p3137
aVYenaek
p3138
aVYercel
p3139
aVYerin12
p3140
aVygj6791
p3141
aVyinochi
p3142
aVyjh3425
p3143
aVYJJKDS
p3144
aVYM233
p3145
aVyokke25
p3146
aVyokoyamaxi
p3147
aVYominar
p3148
aVYona
p3149
aVyoosung92
p3150
aVYorH-a
p3151
aVYoroshiota
p3152
aVyoshihiko_kz
p3153
aVyositeruteru
p3154
aVyotchanika
p3155
aVyottuso
p3156
aVyouaretooyoung
p3157
aVyougym
p3158
aVYoujo
p3159
aVYoukochan0v0
p3160
aVYourMumsVisa
p3161
aVyousann
p3162
aVyozakura_289
p3163
aVYozoray
p3164
aVytr1693
p3165
aVYTYuyu
p3166
aVYu7L
p3167
aVYueno
p3168
aVyueyu1352
p3169
aVyuiko122
p3170
aVYuio
p3171
aVYukari Takeba
p3172
aVYukari-Yakumo
p3173
aVYukariki Ichihime
p3174
aVyukaring
p3175
aVYukiinon
p3176
aVYukina_Prizise
p3177
aVyukkuri_san
p3178
aVYukoko
p3179
aVYukzu
p3180
aVyulika
p3181
aVYuma-
p3182
aVyumenotsubasa
p3183
aVYumihe
p3184
aVYunaYuuki
p3185
aVyung doob
p3186
aVYunoGasaiIsBest
p3187
aVyurinas
p3188
aVYurtmn
p3189
aVYushirro
p3190
aVYutori
p3191
aVYuukinora
p3192
aVyuumati
p3193
aVYuuzio
p3194
aVyuzen96phantom
p3195
aVYuzeyun
p3196
aVywwuyi
p3197
aVZaborn
p3198
aVZachah
p3199
aVZaddy
p3200
aVZaffer
p3201
aVzagaek123
p3202
aVZaiklor
p3203
aVzain_NAO
p3204
aVZakkWild
p3205
aVZalteck
p3206
aVZanders
p3207
aVZanian
p3208
aVZaph
p3209
aVzaq-A-
p3210
aVZarkanex
p3211
aVzatuyougomikuzu
p3212
aVzawde
p3213
aVzawoos
p3214
aVzazck
p3215
aVzb6675
p3216
aVzcraft1000
p3217
aVzebedeee
p3218
aVZeiqhosu
p3219
aVZeisen-
p3220
aVZelatorIx
p3221
aVZelphiX
p3222
aVZenbeest
p3223
aVzenesis12
p3224
aVZenvowo
p3225
aVZephiroce
p3226
aVZephow
p3227
aVZerglingGo
p3228
aVZeroTwoTokisaki
p3229
aVzeroXsaki
p3230
aVZeRo_ZR
p3231
aVZe_Lord999
p3232
aVZFM
p3233
aVzgmfumiya
p3234
aVzhaaq2011
p3235
aVzhengyukok
p3236
aVzhouki
p3237
aVzhujh456
p3238
aVZhuoqianGG
p3239
aVZhuuu
p3240
aVzhuzhu19
p3241
aVZh_Jk
p3242
aVZigah
p3243
aVzilionchen
p3244
aVzin_osu
p3245
aVzoge1234
p3246
aVZombie boy
p3247
aVZoNi NuTy
p3248
aVZonsa
p3249
aVZoramy
p3250
aVzorrocat
p3251
aVZQR
p3252
aVZqroh
p3253
aVZroTomoki
p3254
aVzsxun
p3255
aVzty263263
p3256
aVZuipz
p3257
aVzuroon
p3258
aVzuyez
p3259
aVZwert
p3260
aVzxc5851686
p3261
aVZxerds
p3262
aVzxzxzxzxzx
p3263
aVzy19
p3264
aVZythen
p3265
aVzzcarey
p3266
aVZzeeuuss
p3267
aVzZiggy
p3268
aVZZIRR
p3269
aVzzuner
p3270
aVzzzzifan
p3271
aV[ Ajx ]
p3272
aV[ Akaya]
p3273
aV[ BeepBoop ]
p3274
aV[ DraFit ]
p3275
aV[ Final ]
p3276
aV[ Hisa ]
p3277
aV[ infL ]
p3278
aV[ Kathy ]
p3279
aV[ Koah ]
p3280
aV[ Kowl ]
p3281
aV[ Kyorisant ]
p3282
aV[ Lionheart ]
p3283
aV[ Loli God ]
p3284
aV[ NightBird ]
p3285
aV[ Piano ]
p3286
aV[ Powner ]
p3287
aV[ Rookie ]
p3288
aV[ Scarey ]
p3289
aV[ Shiro-Sora ]
p3290
aV[ Sou ]
p3291
aV[ Spoon ]
p3292
aV[ SR ]
p3293
aV[ YoroshiKle ]
p3294
aV[ Yukki ]
p3295
aV[-S i m p l e-]
p3296
aV[-Sushi-]
p3297
aV[-TIRO FINALE-]
p3298
aV[Arctor]
p3299
aV[Arc]
p3300
aV[ArukaMONSTA-]
p3301
aV[Asckar]
p3302
aV[Baguette]
p3303
aV[Broxing]
p3304
aV[Cptn_Manni]
p3305
aV[Crowl]
p3306
aV[Deity]
p3307
aV[destiny]
p3308
aV[Drago]
p3309
aV[Duck]
p3310
aV[Fiffy]
p3311
aV[HERO]
p3312
aV[Hijiri Byakuren]
p3313
aV[Inukiiroi]
p3314
aV[Kata dzu-sai]
p3315
aV[Kilaxis]
p3316
aV[KOR] MASHIRO
p3317
aV[KOR]AIbino
p3318
aV[KOR]RenNew
p3319
aV[KOR]Seobaek
p3320
aV[KURO-NEKO]
p3321
aV[Luckys Card]
p3322
aV[Lunatic Bell]
p3323
aV[Maou Sadao]
p3324
aV[Midoriichi]
p3325
aV[Morray]
p3326
aV[Nao]
p3327
aV[OCPK]zexcell
p3328
aV[Parasite]
p3329
aV[RhythmSoul]
p3330
aV[Rikka_]
p3331
aV[Section Pass]
p3332
aV[Shimino]
p3333
aV[S]EB
p3334
aV[Tey]
p3335
aV[Toshiro_Desu]
p3336
aV[Toukoro]
p3337
aV[toy]Is our boy
p3338
aV[Trinity]
p3339
aV[Utahashi]
p3340
aV[Virgin Killer]
p3341
aV[Zenith]
p3342
aV[Zexcs]
p3343
aV[_Moyii_]
p3344
aV_-COPY-_
p3345
aV_Arcan_
p3346
aV_Archon
p3347
aV_BonBon
p3348
aV_Buggy
p3349
aV_Chibi_
p3350
aV_Cosmo_
p3351
aV_Eustia_Astraea
p3352
aV_Hachikun_
p3353
aV_hysteria
p3354
aV_Kisho_
p3355
aV_Konatsu
p3356
aV_Kyousuke
p3357
aV_Lily_
p3358
aV_MintyReimu
p3359
aV_Nevermind_
p3360
aV_Ninjin
p3361
aV_Otouto
p3362
aV_Own3d_
p3363
aV_PsyKick_
p3364
aV_RED_Hoodie
p3365
aV_Remy
p3366
aV_Restore
p3367
aV_Rimea_
p3368
aV_RiZu
p3369
aV_Sirix_
p3370
aV_tsubasa_
p3371
aV_Tyler
p3372
aV__Mizu__
p3373
aa(lp3374
g3
aa(lp3375
g4
aa(lp3376
g5
aa(lp3377
g6
aa(lp3378
g7
aa(lp3379
g8
aa(lp3380
g9
aa(lp3381
g10
aa(lp3382
g11
aa(lp3383
g12
aa(lp3384
g13
aa(lp3385
g14
aa(lp3386
g15
aa(lp3387
g16
aa(lp3388
g17
aa(lp3389
g18
aa(lp3390
g19
aa(lp3391
g20
aa(lp3392
g21
aa(lp3393
g22
aa(lp3394
g23
aa(lp3395
g24
aa(lp3396
g25
aa(lp3397
g26
aa(lp3398
g27
aa(lp3399
g28
aa(lp3400
g29
aa(lp3401
g30
aa(lp3402
g31
aa(lp3403
g32
aa(lp3404
g33
aa(lp3405
g34
aa(lp3406
g35
aa(lp3407
g36
aa(lp3408
g37
aa(lp3409
g38
aa(lp3410
g39
aa(lp3411
g40
aa(lp3412
g41
aa(lp3413
g42
aa(lp3414
g43
aa(lp3415
g44
aa(lp3416
g45
aa(lp3417
g46
aa(lp3418
g47
aa(lp3419
g48
aa(lp3420
g49
aa(lp3421
g50
aa(lp3422
g51
aa(lp3423
g52
aa(lp3424
g53
aa(lp3425
g54
aa(lp3426
g55
aa(lp3427
g56
aa(lp3428
g57
aa(lp3429
g58
aa(lp3430
g59
aa(lp3431
g60
aa(lp3432
g61
aa(lp3433
g62
aa(lp3434
g63
aa(lp3435
g64
aa(lp3436
g65
aa(lp3437
g66
aa(lp3438
g67
aa(lp3439
g68
aa(lp3440
g69
aa(lp3441
g70
aa(lp3442
g71
aa(lp3443
g72
aa(lp3444
g73
aa(lp3445
g74
aa(lp3446
g75
aa(lp3447
g76
aa(lp3448
g77
aa(lp3449
g78
aa(lp3450
g79
aa(lp3451
g80
aa(lp3452
g81
aa(lp3453
g82
aa(lp3454
g83
aa(lp3455
g84
aa(lp3456
g85
aa(lp3457
g86
aa(lp3458
g87
aa(lp3459
g88
aa(lp3460
g89
aa(lp3461
g90
aa(lp3462
g91
aa(lp3463
g92
aa(lp3464
g93
aa(lp3465
g94
aa(lp3466
g95
aa(lp3467
g96
aa(lp3468
g97
aa(lp3469
g98
aa(lp3470
g99
aa(lp3471
g100
aa(lp3472
g101
aa(lp3473
g102
aa(lp3474
g103
aa(lp3475
g104
aa(lp3476
g105
aa(lp3477
g106
aa(lp3478
g107
aa(lp3479
g108
aa(lp3480
g109
aa(lp3481
g110
aa(lp3482
g111
aa(lp3483
g112
aa(lp3484
g113
aa(lp3485
g114
aa(lp3486
g115
aa(lp3487
g116
aa(lp3488
g117
aa(lp3489
g118
aa(lp3490
g119
aa(lp3491
g120
aa(lp3492
g121
aa(lp3493
g122
aa(lp3494
g123
aa(lp3495
g124
aa(lp3496
g125
aa(lp3497
g126
aa(lp3498
g127
aa(lp3499
g128
aa(lp3500
g129
aa(lp3501
g130
aa(lp3502
g131
aa(lp3503
g132
aa(lp3504
g133
aa(lp3505
g134
aa(lp3506
g135
aa(lp3507
g136
aa(lp3508
g137
aa(lp3509
g138
aa(lp3510
g139
aa(lp3511
g140
aa(lp3512
g141
aa(lp3513
g142
aa(lp3514
g143
aa(lp3515
g144
aa(lp3516
g145
aa(lp3517
g146
aa(lp3518
g147
aa(lp3519
g148
aa(lp3520
g149
aa(lp3521
g150
aa(lp3522
g151
aa(lp3523
g152
aa(lp3524
g153
aa(lp3525
g154
aa(lp3526
g155
aa(lp3527
g156
aa(lp3528
g157
aa(lp3529
g158
aa(lp3530
g159
aa(lp3531
g160
aa(lp3532
g161
aa(lp3533
g162
aa(lp3534
g163
aa(lp3535
g164
aa(lp3536
g165
aa(lp3537
g166
aa(lp3538
g167
aa(lp3539
g168
aa(lp3540
g169
aa(lp3541
g170
aa(lp3542
g171
aa(lp3543
g172
aa(lp3544
g173
aa(lp3545
g174
aa(lp3546
g175
aa(lp3547
g176
aa(lp3548
g177
aa(lp3549
g178
aa(lp3550
g179
aa(lp3551
g180
aa(lp3552
g181
aa(lp3553
g182
aa(lp3554
g183
aa(lp3555
g184
aa(lp3556
g185
aa(lp3557
g186
aa(lp3558
g187
aa(lp3559
g188
aa(lp3560
g189
aa(lp3561
g190
aa(lp3562
g191
aa(lp3563
g192
aa(lp3564
g193
aa(lp3565
g194
aa(lp3566
g195
aa(lp3567
g196
aa(lp3568
g197
aa(lp3569
g198
aa(lp3570
g199
aa(lp3571
g200
aa(lp3572
g201
aa(lp3573
g202
aa(lp3574
g203
aa(lp3575
g204
aa(lp3576
g205
aa(lp3577
g206
aa(lp3578
g207
aa(lp3579
g208
aa(lp3580
g209
aa(lp3581
g210
aa(lp3582
g211
aa(lp3583
g212
aa(lp3584
g213
aa(lp3585
g214
aa(lp3586
g215
aa(lp3587
g216
aa(lp3588
g217
aa(lp3589
g218
aa(lp3590
g219
aa(lp3591
g220
aa(lp3592
g221
aa(lp3593
g222
aa(lp3594
g223
aa(lp3595
g224
aa(lp3596
g225
aa(lp3597
g226
aa(lp3598
g227
aa(lp3599
g228
aa(lp3600
g229
aa(lp3601
g230
aa(lp3602
g231
aa(lp3603
g232
aa(lp3604
g233
aa(lp3605
g234
aa(lp3606
g235
aa(lp3607
g236
aa(lp3608
g237
aa(lp3609
g238
aa(lp3610
g239
aa(lp3611
g240
aa(lp3612
g241
aa(lp3613
g242
aa(lp3614
g243
aa(lp3615
g244
aa(lp3616
g245
aa(lp3617
g246
aa(lp3618
g247
aa(lp3619
g248
aa(lp3620
g249
aa(lp3621
g250
aa(lp3622
g251
aa(lp3623
g252
aa(lp3624
g253
aa(lp3625
g254
aa(lp3626
g255
aa(lp3627
g256
aa(lp3628
g257
aa(lp3629
g258
aa(lp3630
g259
aa(lp3631
g260
aa(lp3632
g261
aa(lp3633
g262
aa(lp3634
g263
aa(lp3635
g264
aa(lp3636
g265
aa(lp3637
g266
aa(lp3638
g267
aa(lp3639
g268
aa(lp3640
g269
aa(lp3641
g270
aa(lp3642
g271
aa(lp3643
g272
aa(lp3644
g273
aa(lp3645
g274
aa(lp3646
g275
aa(lp3647
g276
aa(lp3648
g277
aa(lp3649
g278
aa(lp3650
g279
aa(lp3651
g280
aa(lp3652
g281
aa(lp3653
g282
aa(lp3654
g283
aa(lp3655
g284
aa(lp3656
g285
aa(lp3657
g286
aa(lp3658
g287
aa(lp3659
g288
aa(lp3660
g289
aa(lp3661
g290
aa(lp3662
g291
aa(lp3663
g292
aa(lp3664
g293
aa(lp3665
g294
aa(lp3666
g295
aa(lp3667
g296
aa(lp3668
g297
aa(lp3669
g298
aa(lp3670
g299
aa(lp3671
g300
aa(lp3672
g301
aa(lp3673
g302
aa(lp3674
g303
aa(lp3675
g304
aa(lp3676
g305
aa(lp3677
g306
aa(lp3678
g307
aa(lp3679
g308
aa(lp3680
g309
aa(lp3681
g310
aa(lp3682
g311
aa(lp3683
g312
aa(lp3684
g313
aa(lp3685
g314
aa(lp3686
g315
aa(lp3687
g316
aa(lp3688
g317
aa(lp3689
g318
aa(lp3690
g319
aa(lp3691
g320
aa(lp3692
g321
aa(lp3693
g322
aa(lp3694
g323
aa(lp3695
g324
aa(lp3696
g325
aa(lp3697
g326
aa(lp3698
g327
aa(lp3699
g328
aa(lp3700
g329
aa(lp3701
g330
aa(lp3702
g331
aa(lp3703
g332
aa(lp3704
g333
aa(lp3705
g334
aa(lp3706
g335
aa(lp3707
g336
aa(lp3708
g337
aa(lp3709
g338
aa(lp3710
g339
aa(lp3711
g340
aa(lp3712
g341
aa(lp3713
g342
aa(lp3714
g343
aa(lp3715
g344
aa(lp3716
g345
aa(lp3717
g346
aa(lp3718
g347
aa(lp3719
g348
aa(lp3720
g349
aa(lp3721
g350
aa(lp3722
g351
aa(lp3723
g352
aa(lp3724
g353
aa(lp3725
g354
aa(lp3726
g355
aa(lp3727
g356
aa(lp3728
g357
aa(lp3729
g358
aa(lp3730
g359
aa(lp3731
g360
aa(lp3732
g361
aa(lp3733
g362
aa(lp3734
g363
aa(lp3735
g364
aa(lp3736
g365
aa(lp3737
g366
aa(lp3738
g367
aa(lp3739
g368
aa(lp3740
g369
aa(lp3741
g370
aa(lp3742
g371
aa(lp3743
g372
aa(lp3744
g373
aa(lp3745
g374
aa(lp3746
g375
aa(lp3747
g376
aa(lp3748
g377
aa(lp3749
g378
aa(lp3750
g379
aa(lp3751
g380
aa(lp3752
g381
aa(lp3753
g382
aa(lp3754
g383
aa(lp3755
g384
aa(lp3756
g385
aa(lp3757
g386
aa(lp3758
g387
aa(lp3759
g388
aa(lp3760
g389
aa(lp3761
g390
aa(lp3762
g391
aa(lp3763
g392
aa(lp3764
g393
aa(lp3765
g394
aa(lp3766
g395
aa(lp3767
g396
aa(lp3768
g397
aa(lp3769
g398
aa(lp3770
g399
aa(lp3771
g400
aa(lp3772
g401
aa(lp3773
g402
aa(lp3774
g403
aa(lp3775
g404
aa(lp3776
g405
aa(lp3777
g406
aa(lp3778
g407
aa(lp3779
g408
aa(lp3780
g409
aa(lp3781
g410
aa(lp3782
g411
aa(lp3783
g412
aa(lp3784
g413
aa(lp3785
g414
aa(lp3786
g415
aa(lp3787
g416
aa(lp3788
g417
aa(lp3789
g418
aa(lp3790
g419
aa(lp3791
g420
aa(lp3792
g421
aa(lp3793
g422
aa(lp3794
g423
aa(lp3795
g424
aa(lp3796
g425
aa(lp3797
g426
aa(lp3798
g427
aa(lp3799
g428
aa(lp3800
g429
aa(lp3801
g430
aa(lp3802
g431
aa(lp3803
g432
aa(lp3804
g433
aa(lp3805
g434
aa(lp3806
g435
aa(lp3807
g436
aa(lp3808
g437
aa(lp3809
g438
aa(lp3810
g439
aa(lp3811
g440
aa(lp3812
g441
aa(lp3813
g442
aa(lp3814
g443
aa(lp3815
g444
aa(lp3816
g445
aa(lp3817
g446
aa(lp3818
g447
aa(lp3819
g448
aa(lp3820
g449
aa(lp3821
g450
aa(lp3822
g451
aa(lp3823
g452
aa(lp3824
g453
aa(lp3825
g454
aa(lp3826
g455
aa(lp3827
g456
aa(lp3828
g457
aa(lp3829
g458
aa(lp3830
g459
aa(lp3831
g460
aa(lp3832
g461
aa(lp3833
g462
aa(lp3834
g463
aa(lp3835
g464
aa(lp3836
g465
aa(lp3837
g466
aa(lp3838
g467
aa(lp3839
g468
aa(lp3840
g469
aa(lp3841
g470
aa(lp3842
g471
aa(lp3843
g472
aa(lp3844
g473
aa(lp3845
g474
aa(lp3846
g475
aa(lp3847
g476
aa(lp3848
g477
aa(lp3849
g478
aa(lp3850
g479
aa(lp3851
g480
aa(lp3852
g481
aa(lp3853
g482
aa(lp3854
g483
aa(lp3855
g484
aa(lp3856
g485
aa(lp3857
g486
aa(lp3858
g487
aa(lp3859
g488
aa(lp3860
g489
aa(lp3861
g490
aa(lp3862
g491
aa(lp3863
g492
aa(lp3864
g493
aa(lp3865
g494
aa(lp3866
g495
aa(lp3867
g496
aa(lp3868
g497
aa(lp3869
g498
aa(lp3870
g499
aa(lp3871
g500
aa(lp3872
g501
aa(lp3873
g502
aa(lp3874
g503
aa(lp3875
g504
aa(lp3876
g505
aa(lp3877
g506
aa(lp3878
g507
aa(lp3879
g508
aa(lp3880
g509
aa(lp3881
g510
aa(lp3882
g511
aa(lp3883
g512
aa(lp3884
g513
aa(lp3885
g514
aa(lp3886
g515
aa(lp3887
g516
aa(lp3888
g517
aa(lp3889
g518
aa(lp3890
g519
aa(lp3891
g520
aa(lp3892
g521
aa(lp3893
g522
aa(lp3894
g523
aa(lp3895
g524
aa(lp3896
g525
aa(lp3897
g526
aa(lp3898
g527
aa(lp3899
g528
aa(lp3900
g529
aa(lp3901
g530
aa(lp3902
g531
aa(lp3903
g532
aa(lp3904
g533
aa(lp3905
g534
aa(lp3906
g535
aa(lp3907
g536
aa(lp3908
g537
aa(lp3909
g538
aa(lp3910
g539
aa(lp3911
g540
aa(lp3912
g541
aa(lp3913
g542
aa(lp3914
g543
aa(lp3915
g544
aa(lp3916
g545
aa(lp3917
g546
aa(lp3918
g547
aa(lp3919
g548
aa(lp3920
g549
aa(lp3921
g550
aa(lp3922
g551
aa(lp3923
g552
aa(lp3924
g553
aa(lp3925
g554
aa(lp3926
g555
aa(lp3927
g556
aa(lp3928
g557
aa(lp3929
g558
aa(lp3930
g559
aa(lp3931
g560
aa(lp3932
g561
aa(lp3933
g562
aa(lp3934
g563
aa(lp3935
g564
aa(lp3936
g565
aa(lp3937
g566
aa(lp3938
g567
aa(lp3939
g568
aa(lp3940
g569
aa(lp3941
g570
aa(lp3942
g571
aa(lp3943
g572
aa(lp3944
g573
aa(lp3945
g574
aa(lp3946
g575
aa(lp3947
g576
aa(lp3948
g577
aa(lp3949
g578
aa(lp3950
g579
aa(lp3951
g580
aa(lp3952
g581
aa(lp3953
g582
aa(lp3954
g583
aa(lp3955
g584
aa(lp3956
g585
aa(lp3957
g586
aa(lp3958
g587
aa(lp3959
g588
aa(lp3960
g589
aa(lp3961
g590
aa(lp3962
g591
aa(lp3963
g592
aa(lp3964
g593
aa(lp3965
g594
aa(lp3966
g595
aa(lp3967
g596
aa(lp3968
g597
aa(lp3969
g598
aa(lp3970
g599
aa(lp3971
g600
aa(lp3972
g601
aa(lp3973
g602
aa(lp3974
g603
aa(lp3975
g604
aa(lp3976
g605
aa(lp3977
g606
aa(lp3978
g607
aa(lp3979
g608
aa(lp3980
g609
aa(lp3981
g610
aa(lp3982
g611
aa(lp3983
g612
aa(lp3984
g613
aa(lp3985
g614
aa(lp3986
g615
aa(lp3987
g616
aa(lp3988
g617
aa(lp3989
g618
aa(lp3990
g619
aa(lp3991
g620
aa(lp3992
g621
aa(lp3993
g622
aa(lp3994
g623
aa(lp3995
g624
aa(lp3996
g625
aa(lp3997
g626
aa(lp3998
g627
aa(lp3999
g628
aa(lp4000
g629
aa(lp4001
g630
aa(lp4002
g631
aa(lp4003
g632
aa(lp4004
g633
aa(lp4005
g634
aa(lp4006
g635
aa(lp4007
g636
aa(lp4008
g637
aa(lp4009
g638
aa(lp4010
g639
aa(lp4011
g640
aa(lp4012
g641
aa(lp4013
g642
aa(lp4014
g643
aa(lp4015
g644
aa(lp4016
g645
aa(lp4017
g646
aa(lp4018
g647
aa(lp4019
g648
aa(lp4020
g649
aa(lp4021
g650
aa(lp4022
g651
aa(lp4023
g652
aa(lp4024
g653
aa(lp4025
g654
aa(lp4026
g655
aa(lp4027
g656
aa(lp4028
g657
aa(lp4029
g658
aa(lp4030
g659
aa(lp4031
g660
aa(lp4032
g661
aa(lp4033
g662
aa(lp4034
g663
aa(lp4035
g664
aa(lp4036
g665
aa(lp4037
g666
aa(lp4038
g667
aa(lp4039
g668
aa(lp4040
g669
aa(lp4041
g670
aa(lp4042
g671
aa(lp4043
g672
aa(lp4044
g673
aa(lp4045
g674
aa(lp4046
g675
aa(lp4047
g676
aa(lp4048
g677
aa(lp4049
g678
aa(lp4050
g679
aa(lp4051
g680
aa(lp4052
g681
aa(lp4053
g682
aa(lp4054
g683
aa(lp4055
g684
aa(lp4056
g685
aa(lp4057
g686
aa(lp4058
g687
aa(lp4059
g688
aa(lp4060
g689
aa(lp4061
g690
aa(lp4062
g691
aa(lp4063
g692
aa(lp4064
g693
aa(lp4065
g694
aa(lp4066
g695
aa(lp4067
g696
aa(lp4068
g697
aa(lp4069
g698
aa(lp4070
g699
aa(lp4071
g700
aa(lp4072
g701
aa(lp4073
g702
aa(lp4074
g703
aa(lp4075
g704
aa(lp4076
g705
aa(lp4077
g706
aa(lp4078
g707
aa(lp4079
g708
aa(lp4080
g709
aa(lp4081
g710
aa(lp4082
g711
aa(lp4083
g712
aa(lp4084
g713
aa(lp4085
g714
aa(lp4086
g715
aa(lp4087
g716
aa(lp4088
g717
aa(lp4089
g718
aa(lp4090
g719
aa(lp4091
g720
aa(lp4092
g721
aa(lp4093
g722
aa(lp4094
g723
aa(lp4095
g724
aa(lp4096
g725
aa(lp4097
g726
aa(lp4098
g727
aa(lp4099
g728
aa(lp4100
g729
aa(lp4101
g730
aa(lp4102
g731
aa(lp4103
g732
aa(lp4104
g733
aa(lp4105
g734
aa(lp4106
g735
aa(lp4107
g736
aa(lp4108
g737
aa(lp4109
g738
aa(lp4110
g739
aa(lp4111
g740
aa(lp4112
g741
aa(lp4113
g742
aa(lp4114
g743
aa(lp4115
g744
aa(lp4116
g745
aa(lp4117
g746
aa(lp4118
g747
aa(lp4119
g748
aa(lp4120
g749
aa(lp4121
g750
aa(lp4122
g751
aa(lp4123
g752
aa(lp4124
g753
aa(lp4125
g754
aa(lp4126
g755
aa(lp4127
g756
aa(lp4128
g757
aa(lp4129
g758
aa(lp4130
g759
aa(lp4131
g760
aa(lp4132
g761
aa(lp4133
g762
aa(lp4134
g763
aa(lp4135
g764
aa(lp4136
g765
aa(lp4137
g766
aa(lp4138
g767
aa(lp4139
g768
aa(lp4140
g769
aa(lp4141
g770
aa(lp4142
g771
aa(lp4143
g772
aa(lp4144
g773
aa(lp4145
g774
aa(lp4146
g775
aa(lp4147
g776
aa(lp4148
g777
aa(lp4149
g778
aa(lp4150
g779
aa(lp4151
g780
aa(lp4152
g781
aa(lp4153
g782
aa(lp4154
g783
aa(lp4155
g784
aa(lp4156
g785
aa(lp4157
g786
aa(lp4158
g787
aa(lp4159
g788
aa(lp4160
g789
aa(lp4161
g790
aa(lp4162
g791
aa(lp4163
g792
aa(lp4164
g793
aa(lp4165
g794
aa(lp4166
g795
aa(lp4167
g796
aa(lp4168
g797
aa(lp4169
g798
aa(lp4170
g799
aa(lp4171
g800
aa(lp4172
g801
aa(lp4173
g802
aa(lp4174
g803
aa(lp4175
g804
aa(lp4176
g805
aa(lp4177
g806
aa(lp4178
g807
aa(lp4179
g808
aa(lp4180
g809
aa(lp4181
g810
aa(lp4182
g811
aa(lp4183
g812
aa(lp4184
g813
aa(lp4185
g814
aa(lp4186
g815
aa(lp4187
g816
aa(lp4188
g817
aa(lp4189
g818
aa(lp4190
g819
aa(lp4191
g820
aa(lp4192
g821
aa(lp4193
g822
aa(lp4194
g823
aa(lp4195
g824
aa(lp4196
g825
aa(lp4197
g826
aa(lp4198
g827
aa(lp4199
g828
aa(lp4200
g829
aa(lp4201
g830
aa(lp4202
g831
aa(lp4203
g832
aa(lp4204
g833
aa(lp4205
g834
aa(lp4206
g835
aa(lp4207
g836
aa(lp4208
g837
aa(lp4209
g838
aa(lp4210
g839
aa(lp4211
g840
aa(lp4212
g841
aa(lp4213
g842
aa(lp4214
g843
aa(lp4215
g844
aa(lp4216
g845
aa(lp4217
g846
aa(lp4218
g847
aa(lp4219
g848
aa(lp4220
g849
aa(lp4221
g850
aa(lp4222
g851
aa(lp4223
g852
aa(lp4224
g853
aa(lp4225
g854
aa(lp4226
g855
aa(lp4227
g856
aa(lp4228
g857
aa(lp4229
g858
aa(lp4230
g859
aa(lp4231
g860
aa(lp4232
g861
aa(lp4233
g862
aa(lp4234
g863
aa(lp4235
g864
aa(lp4236
g865
aa(lp4237
g866
aa(lp4238
g867
aa(lp4239
g868
aa(lp4240
g869
aa(lp4241
g870
aa(lp4242
g871
aa(lp4243
g872
aa(lp4244
g873
aa(lp4245
g874
aa(lp4246
g875
aa(lp4247
g876
aa(lp4248
g877
aa(lp4249
g878
aa(lp4250
g879
aa(lp4251
g880
aa(lp4252
g881
aa(lp4253
g882
aa(lp4254
g883
aa(lp4255
g884
aa(lp4256
g885
aa(lp4257
g886
aa(lp4258
g887
aa(lp4259
g888
aa(lp4260
g889
aa(lp4261
g890
aa(lp4262
g891
aa(lp4263
g892
aa(lp4264
g893
aa(lp4265
g894
aa(lp4266
g895
aa(lp4267
g896
aa(lp4268
g897
aa(lp4269
g898
aa(lp4270
g899
aa(lp4271
g900
aa(lp4272
g901
aa(lp4273
g902
aa(lp4274
g903
aa(lp4275
g904
aa(lp4276
g905
aa(lp4277
g906
aa(lp4278
g907
aa(lp4279
g908
aa(lp4280
g909
aa(lp4281
g910
aa(lp4282
g911
aa(lp4283
g912
aa(lp4284
g913
aa(lp4285
g914
aa(lp4286
g915
aa(lp4287
g916
aa(lp4288
g917
aa(lp4289
g918
aa(lp4290
g919
aa(lp4291
g920
aa(lp4292
g921
aa(lp4293
g922
aa(lp4294
g923
aa(lp4295
g924
aa(lp4296
g925
aa(lp4297
g926
aa(lp4298
g927
aa(lp4299
g928
aa(lp4300
g929
aa(lp4301
g930
aa(lp4302
g931
aa(lp4303
g932
aa(lp4304
g933
aa(lp4305
g934
aa(lp4306
g935
aa(lp4307
g936
aa(lp4308
g937
aa(lp4309
g938
aa(lp4310
g939
aa(lp4311
g940
aa(lp4312
g941
aa(lp4313
g942
aa(lp4314
g943
aa(lp4315
g944
aa(lp4316
g945
aa(lp4317
g946
aa(lp4318
g947
aa(lp4319
g948
aa(lp4320
g949
aa(lp4321
g950
aa(lp4322
g951
aa(lp4323
g952
aa(lp4324
g953
aa(lp4325
g954
aa(lp4326
g955
aa(lp4327
g956
aa(lp4328
g957
aa(lp4329
g958
aa(lp4330
g959
aa(lp4331
g960
aa(lp4332
g961
aa(lp4333
g962
aa(lp4334
g963
aa(lp4335
g964
aa(lp4336
g965
aa(lp4337
g966
aa(lp4338
g967
aa(lp4339
g968
aa(lp4340
g969
aa(lp4341
g970
aa(lp4342
g971
aa(lp4343
g972
aa(lp4344
g973
aa(lp4345
g974
aa(lp4346
g975
aa(lp4347
g976
aa(lp4348
g977
aa(lp4349
g978
aa(lp4350
g979
aa(lp4351
g980
aa(lp4352
g981
aa(lp4353
g982
aa(lp4354
g983
aa(lp4355
g984
aa(lp4356
g985
aa(lp4357
g986
aa(lp4358
g987
aa(lp4359
g988
aa(lp4360
g989
aa(lp4361
g990
aa(lp4362
g991
aa(lp4363
g992
aa(lp4364
g993
aa(lp4365
g994
aa(lp4366
g995
aa(lp4367
g996
aa(lp4368
g997
aa(lp4369
g998
aa(lp4370
g999
aa(lp4371
g1000
aa(lp4372
g1001
aa(lp4373
g1002
aa(lp4374
g1003
aa(lp4375
g1004
aa(lp4376
g1005
aa(lp4377
g1006
aa(lp4378
g1007
aa(lp4379
g1008
aa(lp4380
g1009
aa(lp4381
g1010
aa(lp4382
g1011
aa(lp4383
g1012
aa(lp4384
g1013
aa(lp4385
g1014
aa(lp4386
g1015
aa(lp4387
g1016
aa(lp4388
g1017
aa(lp4389
g1018
aa(lp4390
g1019
aa(lp4391
g1020
aa(lp4392
g1021
aa(lp4393
g1022
aa(lp4394
g1023
aa(lp4395
g1024
aa(lp4396
g1025
aa(lp4397
g1026
aa(lp4398
g1027
aa(lp4399
g1028
aa(lp4400
g1029
aa(lp4401
g1030
aa(lp4402
g1031
aa(lp4403
g1032
aa(lp4404
g1033
aa(lp4405
g1034
aa(lp4406
g1035
aa(lp4407
g1036
aa(lp4408
g1037
aa(lp4409
g1038
aa(lp4410
g1039
aa(lp4411
g1040
aa(lp4412
g1041
aa(lp4413
g1042
aa(lp4414
g1043
aa(lp4415
g1044
aa(lp4416
g1045
aa(lp4417
g1046
aa(lp4418
g1047
aa(lp4419
g1048
aa(lp4420
g1049
aa(lp4421
g1050
aa(lp4422
g1051
aa(lp4423
g1052
aa(lp4424
g1053
aa(lp4425
g1054
aa(lp4426
g1055
aa(lp4427
g1056
aa(lp4428
g1057
aa(lp4429
g1058
aa(lp4430
g1059
aa(lp4431
g1060
aa(lp4432
g1061
aa(lp4433
g1062
aa(lp4434
g1063
aa(lp4435
g1064
aa(lp4436
g1065
aa(lp4437
g1066
aa(lp4438
g1067
aa(lp4439
g1068
aa(lp4440
g1069
aa(lp4441
g1070
aa(lp4442
g1071
aa(lp4443
g1072
aa(lp4444
g1073
aa(lp4445
g1074
aa(lp4446
g1075
aa(lp4447
g1076
aa(lp4448
g1077
aa(lp4449
g1078
aa(lp4450
g1079
aa(lp4451
g1080
aa(lp4452
g1081
aa(lp4453
g1082
aa(lp4454
g1083
aa(lp4455
g1084
aa(lp4456
g1085
aa(lp4457
g1086
aa(lp4458
g1087
aa(lp4459
g1088
aa(lp4460
g1089
aa(lp4461
g1090
aa(lp4462
g1091
aa(lp4463
g1092
aa(lp4464
g1093
aa(lp4465
g1094
aa(lp4466
g1095
aa(lp4467
g1096
aa(lp4468
g1097
aa(lp4469
g1098
aa(lp4470
g1099
aa(lp4471
g1100
aa(lp4472
g1101
aa(lp4473
g1102
aa(lp4474
g1103
aa(lp4475
g1104
aa(lp4476
g1105
aa(lp4477
g1106
aa(lp4478
g1107
aa(lp4479
g1108
aa(lp4480
g1109
aa(lp4481
g1110
aa(lp4482
g1111
aa(lp4483
g1112
aa(lp4484
g1113
aa(lp4485
g1114
aa(lp4486
g1115
aa(lp4487
g1116
aa(lp4488
g1117
aa(lp4489
g1118
aa(lp4490
g1119
aa(lp4491
g1120
aa(lp4492
g1121
aa(lp4493
g1122
aa(lp4494
g1123
aa(lp4495
g1124
aa(lp4496
g1125
aa(lp4497
g1126
aa(lp4498
g1127
aa(lp4499
g1128
aa(lp4500
g1129
aa(lp4501
g1130
aa(lp4502
g1131
aa(lp4503
g1132
aa(lp4504
g1133
aa(lp4505
g1134
aa(lp4506
g1135
aa(lp4507
g1136
aa(lp4508
g1137
aa(lp4509
g1138
aa(lp4510
g1139
aa(lp4511
g1140
aa(lp4512
g1141
aa(lp4513
g1142
aa(lp4514
g1143
aa(lp4515
g1144
aa(lp4516
g1145
aa(lp4517
g1146
aa(lp4518
g1147
aa(lp4519
g1148
aa(lp4520
g1149
aa(lp4521
g1150
aa(lp4522
g1151
aa(lp4523
g1152
aa(lp4524
g1153
aa(lp4525
g1154
aa(lp4526
g1155
aa(lp4527
g1156
aa(lp4528
g1157
aa(lp4529
g1158
aa(lp4530
g1159
aa(lp4531
g1160
aa(lp4532
g1161
aa(lp4533
g1162
aa(lp4534
g1163
aa(lp4535
g1164
aa(lp4536
g1165
aa(lp4537
g1166
aa(lp4538
g1167
aa(lp4539
g1168
aa(lp4540
g1169
aa(lp4541
g1170
aa(lp4542
g1171
aa(lp4543
g1172
aa(lp4544
g1173
aa(lp4545
g1174
aa(lp4546
g1175
aa(lp4547
g1176
aa(lp4548
g1177
aa(lp4549
g1178
aa(lp4550
g1179
aa(lp4551
g1180
aa(lp4552
g1181
aa(lp4553
g1182
aa(lp4554
g1183
aa(lp4555
g1184
aa(lp4556
g1185
aa(lp4557
g1186
aa(lp4558
g1187
aa(lp4559
g1188
aa(lp4560
g1189
aa(lp4561
g1190
aa(lp4562
g1191
aa(lp4563
g1192
aa(lp4564
g1193
aa(lp4565
g1194
aa(lp4566
g1195
aa(lp4567
g1196
aa(lp4568
g1197
aa(lp4569
g1198
aa(lp4570
g1199
aa(lp4571
g1200
aa(lp4572
g1201
aa(lp4573
g1202
aa(lp4574
g1203
aa(lp4575
g1204
aa(lp4576
g1205
aa(lp4577
g1206
aa(lp4578
g1207
aa(lp4579
g1208
aa(lp4580
g1209
aa(lp4581
g1210
aa(lp4582
g1211
aa(lp4583
g1212
aa(lp4584
g1213
aa(lp4585
g1214
aa(lp4586
g1215
aa(lp4587
g1216
aa(lp4588
g1217
aa(lp4589
g1218
aa(lp4590
g1219
aa(lp4591
g1220
aa(lp4592
g1221
aa(lp4593
g1222
aa(lp4594
g1223
aa(lp4595
g1224
aa(lp4596
g1225
aa(lp4597
g1226
aa(lp4598
g1227
aa(lp4599
g1228
aa(lp4600
g1229
aa(lp4601
g1230
aa(lp4602
g1231
aa(lp4603
g1232
aa(lp4604
g1233
aa(lp4605
g1234
aa(lp4606
g1235
aa(lp4607
g1236
aa(lp4608
g1237
aa(lp4609
g1238
aa(lp4610
g1239
aa(lp4611
g1240
aa(lp4612
g1241
aa(lp4613
g1242
aa(lp4614
g1243
aa(lp4615
g1244
aa(lp4616
g1245
aa(lp4617
g1246
aa(lp4618
g1247
aa(lp4619
g1248
aa(lp4620
g1249
aa(lp4621
g1250
aa(lp4622
g1251
aa(lp4623
g1252
aa(lp4624
g1253
aa(lp4625
g1254
aa(lp4626
g1255
aa(lp4627
g1256
aa(lp4628
g1257
aa(lp4629
g1258
aa(lp4630
g1259
aa(lp4631
g1260
aa(lp4632
g1261
aa(lp4633
g1262
aa(lp4634
g1263
aa(lp4635
g1264
aa(lp4636
g1265
aa(lp4637
g1266
aa(lp4638
g1267
aa(lp4639
g1268
aa(lp4640
g1269
aa(lp4641
g1270
aa(lp4642
g1271
aa(lp4643
g1272
aa(lp4644
g1273
aa(lp4645
g1274
aa(lp4646
g1275
aa(lp4647
g1276
aa(lp4648
g1277
aa(lp4649
g1278
aa(lp4650
g1279
aa(lp4651
g1280
aa(lp4652
g1281
aa(lp4653
g1282
aa(lp4654
g1283
aa(lp4655
g1284
aa(lp4656
g1285
aa(lp4657
g1286
aa(lp4658
g1287
aa(lp4659
g1288
aa(lp4660
g1289
aa(lp4661
g1290
aa(lp4662
g1291
aa(lp4663
g1292
aa(lp4664
g1293
aa(lp4665
g1294
aa(lp4666
g1295
aa(lp4667
g1296
aa(lp4668
g1297
aa(lp4669
g1298
aa(lp4670
g1299
aa(lp4671
g1300
aa(lp4672
g1301
aa(lp4673
g1302
aa(lp4674
g1303
aa(lp4675
g1304
aa(lp4676
g1305
aa(lp4677
g1306
aa(lp4678
g1307
aa(lp4679
g1308
aa(lp4680
g1309
aa(lp4681
g1310
aa(lp4682
g1311
aa(lp4683
g1312
aa(lp4684
g1313
aa(lp4685
g1314
aa(lp4686
g1315
aa(lp4687
g1316
aa(lp4688
g1317
aa(lp4689
g1318
aa(lp4690
g1319
aa(lp4691
g1320
aa(lp4692
g1321
aa(lp4693
g1322
aa(lp4694
g1323
aa(lp4695
g1324
aa(lp4696
g1325
aa(lp4697
g1326
aa(lp4698
g1327
aa(lp4699
g1328
aa(lp4700
g1329
aa(lp4701
g1330
aa(lp4702
g1331
aa(lp4703
g1332
aa(lp4704
g1333
aa(lp4705
g1334
aa(lp4706
g1335
aa(lp4707
g1336
aa(lp4708
g1337
aa(lp4709
g1338
aa(lp4710
g1339
aa(lp4711
g1340
aa(lp4712
g1341
aa(lp4713
g1342
aa(lp4714
g1343
aa(lp4715
g1344
aa(lp4716
g1345
aa(lp4717
g1346
aa(lp4718
g1347
aa(lp4719
g1348
aa(lp4720
g1349
aa(lp4721
g1350
aa(lp4722
g1351
aa(lp4723
g1352
aa(lp4724
g1353
aa(lp4725
g1354
aa(lp4726
g1355
aa(lp4727
g1356
aa(lp4728
g1357
aa(lp4729
g1358
aa(lp4730
g1359
aa(lp4731
g1360
aa(lp4732
g1361
aa(lp4733
g1362
aa(lp4734
g1363
aa(lp4735
g1364
aa(lp4736
g1365
aa(lp4737
g1366
aa(lp4738
g1367
aa(lp4739
g1368
aa(lp4740
g1369
aa(lp4741
g1370
aa(lp4742
g1371
aa(lp4743
g1372
aa(lp4744
g1373
aa(lp4745
g1374
aa(lp4746
g1375
aa(lp4747
g1376
aa(lp4748
g1377
aa(lp4749
g1378
aa(lp4750
g1379
aa(lp4751
g1380
aa(lp4752
g1381
aa(lp4753
g1382
aa(lp4754
g1383
aa(lp4755
g1384
aa(lp4756
g1385
aa(lp4757
g1386
aa(lp4758
g1387
aa(lp4759
g1388
aa(lp4760
g1389
aa(lp4761
g1390
aa(lp4762
g1391
aa(lp4763
g1392
aa(lp4764
g1393
aa(lp4765
g1394
aa(lp4766
g1395
aa(lp4767
g1396
aa(lp4768
g1397
aa(lp4769
g1398
aa(lp4770
g1399
aa(lp4771
g1400
aa(lp4772
g1401
aa(lp4773
g1402
aa(lp4774
g1403
aa(lp4775
g1404
aa(lp4776
g1405
aa(lp4777
g1406
aa(lp4778
g1407
aa(lp4779
g1408
aa(lp4780
g1409
aa(lp4781
g1410
aa(lp4782
g1411
aa(lp4783
g1412
aa(lp4784
g1413
aa(lp4785
g1414
aa(lp4786
g1415
aa(lp4787
g1416
aa(lp4788
g1417
aa(lp4789
g1418
aa(lp4790
g1419
aa(lp4791
g1420
aa(lp4792
g1421
aa(lp4793
g1422
aa(lp4794
g1423
aa(lp4795
g1424
aa(lp4796
g1425
aa(lp4797
g1426
aa(lp4798
g1427
aa(lp4799
g1428
aa(lp4800
g1429
aa(lp4801
g1430
aa(lp4802
g1431
aa(lp4803
g1432
aa(lp4804
g1433
aa(lp4805
g1434
aa(lp4806
g1435
aa(lp4807
g1436
aa(lp4808
g1437
aa(lp4809
g1438
aa(lp4810
g1439
aa(lp4811
g1440
aa(lp4812
g1441
aa(lp4813
g1442
aa(lp4814
g1443
aa(lp4815
g1444
aa(lp4816
g1445
aa(lp4817
g1446
aa(lp4818
g1447
aa(lp4819
g1448
aa(lp4820
g1449
aa(lp4821
g1450
aa(lp4822
g1451
aa(lp4823
g1452
aa(lp4824
g1453
aa(lp4825
g1454
aa(lp4826
g1455
aa(lp4827
g1456
aa(lp4828
g1457
aa(lp4829
g1458
aa(lp4830
g1459
aa(lp4831
g1460
aa(lp4832
g1461
aa(lp4833
g1462
aa(lp4834
g1463
aa(lp4835
g1464
aa(lp4836
g1465
aa(lp4837
g1466
aa(lp4838
g1467
aa(lp4839
g1468
aa(lp4840
g1469
aa(lp4841
g1470
aa(lp4842
g1471
aa(lp4843
g1472
aa(lp4844
g1473
aa(lp4845
g1474
aa(lp4846
g1475
aa(lp4847
g1476
aa(lp4848
g1477
aa(lp4849
g1478
aa(lp4850
g1479
aa(lp4851
g1480
aa(lp4852
g1481
aa(lp4853
g1482
aa(lp4854
g1483
aa(lp4855
g1484
aa(lp4856
g1485
aa(lp4857
g1486
aa(lp4858
g1487
aa(lp4859
g1488
aa(lp4860
g1489
aa(lp4861
g1490
aa(lp4862
g1491
aa(lp4863
g1492
aa(lp4864
g1493
aa(lp4865
g1494
aa(lp4866
g1495
aa(lp4867
g1496
aa(lp4868
g1497
aa(lp4869
g1498
aa(lp4870
g1499
aa(lp4871
g1500
aa(lp4872
g1501
aa(lp4873
g1502
aa(lp4874
g1503
aa(lp4875
g1504
aa(lp4876
g1505
aa(lp4877
g1506
aa(lp4878
g1507
aa(lp4879
g1508
aa(lp4880
g1509
aa(lp4881
g1510
aa(lp4882
g1511
aa(lp4883
g1512
aa(lp4884
g1513
aa(lp4885
g1514
aa(lp4886
g1515
aa(lp4887
g1516
aa(lp4888
g1517
aa(lp4889
g1518
aa(lp4890
g1519
aa(lp4891
g1520
aa(lp4892
g1521
aa(lp4893
g1522
aa(lp4894
g1523
aa(lp4895
g1524
aa(lp4896
g1525
aa(lp4897
g1526
aa(lp4898
g1527
aa(lp4899
g1528
aa(lp4900
g1529
aa(lp4901
g1530
aa(lp4902
g1531
aa(lp4903
g1532
aa(lp4904
g1533
aa(lp4905
g1534
aa(lp4906
g1535
aa(lp4907
g1536
aa(lp4908
g1537
aa(lp4909
g1538
aa(lp4910
g1539
aa(lp4911
g1540
aa(lp4912
g1541
aa(lp4913
g1542
aa(lp4914
g1543
aa(lp4915
g1544
aa(lp4916
g1545
aa(lp4917
g1546
aa(lp4918
g1547
aa(lp4919
g1548
aa(lp4920
g1549
aa(lp4921
g1550
aa(lp4922
g1551
aa(lp4923
g1552
aa(lp4924
g1553
aa(lp4925
g1554
aa(lp4926
g1555
aa(lp4927
g1556
aa(lp4928
g1557
aa(lp4929
g1558
aa(lp4930
g1559
aa(lp4931
g1560
aa(lp4932
g1561
aa(lp4933
g1562
aa(lp4934
g1563
aa(lp4935
g1564
aa(lp4936
g1565
aa(lp4937
g1566
aa(lp4938
g1567
aa(lp4939
g1568
aa(lp4940
g1569
aa(lp4941
g1570
aa(lp4942
g1571
aa(lp4943
g1572
aa(lp4944
g1573
aa(lp4945
g1574
aa(lp4946
g1575
aa(lp4947
g1576
aa(lp4948
g1577
aa(lp4949
g1578
aa(lp4950
g1579
aa(lp4951
g1580
aa(lp4952
g1581
aa(lp4953
g1582
aa(lp4954
g1583
aa(lp4955
g1584
aa(lp4956
g1585
aa(lp4957
g1586
aa(lp4958
g1587
aa(lp4959
g1588
aa(lp4960
g1589
aa(lp4961
g1590
aa(lp4962
g1591
aa(lp4963
g1592
aa(lp4964
g1593
aa(lp4965
g1594
aa(lp4966
g1595
aa(lp4967
g1596
aa(lp4968
g1597
aa(lp4969
g1598
aa(lp4970
g1599
aa(lp4971
g1600
aa(lp4972
g1601
aa(lp4973
g1602
aa(lp4974
g1603
aa(lp4975
g1604
aa(lp4976
g1605
aa(lp4977
g1606
aa(lp4978
g1607
aa(lp4979
g1608
aa(lp4980
g1609
aa(lp4981
g1610
aa(lp4982
g1611
aa(lp4983
g1612
aa(lp4984
g1613
aa(lp4985
g1614
aa(lp4986
g1615
aa(lp4987
g1616
aa(lp4988
g1617
aa(lp4989
g1618
aa(lp4990
g1619
aa(lp4991
g1620
aa(lp4992
g1621
aa(lp4993
g1622
aa(lp4994
g1623
aa(lp4995
g1624
aa(lp4996
g1625
aa(lp4997
g1626
aa(lp4998
g1627
aa(lp4999
g1628
aa(lp5000
g1629
aa(lp5001
g1630
aa(lp5002
g1631
aa(lp5003
g1632
aa(lp5004
g1633
aa(lp5005
g1634
aa(lp5006
g1635
aa(lp5007
g1636
aa(lp5008
g1637
aa(lp5009
g1638
aa(lp5010
g1639
aa(lp5011
g1640
aa(lp5012
g1641
aa(lp5013
g1642
aa(lp5014
g1643
aa(lp5015
g1644
aa(lp5016
g1645
aa(lp5017
g1646
aa(lp5018
g1647
aa(lp5019
g1648
aa(lp5020
g1649
aa(lp5021
g1650
aa(lp5022
g1651
aa(lp5023
g1652
aa(lp5024
g1653
aa(lp5025
g1654
aa(lp5026
g1655
aa(lp5027
g1656
aa(lp5028
g1657
aa(lp5029
g1658
aa(lp5030
g1659
aa(lp5031
g1660
aa(lp5032
g1661
aa(lp5033
g1662
aa(lp5034
g1663
aa(lp5035
g1664
aa(lp5036
g1665
aa(lp5037
g1666
aa(lp5038
g1667
aa(lp5039
g1668
aa(lp5040
g1669
aa(lp5041
g1670
aa(lp5042
g1671
aa(lp5043
g1672
aa(lp5044
g1673
aa(lp5045
g1674
aa(lp5046
g1675
aa(lp5047
g1676
aa(lp5048
g1677
aa(lp5049
g1678
aa(lp5050
g1679
aa(lp5051
g1680
aa(lp5052
g1681
aa(lp5053
g1682
aa(lp5054
g1683
aa(lp5055
g1684
aa(lp5056
g1685
aa(lp5057
g1686
aa(lp5058
g1687
aa(lp5059
g1688
aa(lp5060
g1689
aa(lp5061
g1690
aa(lp5062
g1691
aa(lp5063
g1692
aa(lp5064
g1693
aa(lp5065
g1694
aa(lp5066
g1695
aa(lp5067
g1696
aa(lp5068
g1697
aa(lp5069
g1698
aa(lp5070
g1699
aa(lp5071
g1700
aa(lp5072
g1701
aa(lp5073
g1702
aa(lp5074
g1703
aa(lp5075
g1704
aa(lp5076
g1705
aa(lp5077
g1706
aa(lp5078
g1707
aa(lp5079
g1708
aa(lp5080
g1709
aa(lp5081
g1710
aa(lp5082
g1711
aa(lp5083
g1712
aa(lp5084
g1713
aa(lp5085
g1714
aa(lp5086
g1715
aa(lp5087
g1716
aa(lp5088
g1717
aa(lp5089
g1718
aa(lp5090
g1719
aa(lp5091
g1720
aa(lp5092
g1721
aa(lp5093
g1722
aa(lp5094
g1723
aa(lp5095
g1724
aa(lp5096
g1725
aa(lp5097
g1726
aa(lp5098
g1727
aa(lp5099
g1728
aa(lp5100
g1729
aa(lp5101
g1730
aa(lp5102
g1731
aa(lp5103
g1732
aa(lp5104
g1733
aa(lp5105
g1734
aa(lp5106
g1735
aa(lp5107
g1736
aa(lp5108
g1737
aa(lp5109
g1738
aa(lp5110
g1739
aa(lp5111
g1740
aa(lp5112
g1741
aa(lp5113
g1742
aa(lp5114
g1743
aa(lp5115
g1744
aa(lp5116
g1745
aa(lp5117
g1746
aa(lp5118
g1747
aa(lp5119
g1748
aa(lp5120
g1749
aa(lp5121
g1750
aa(lp5122
g1751
aa(lp5123
g1752
aa(lp5124
g1753
aa(lp5125
g1754
aa(lp5126
g1755
aa(lp5127
g1756
aa(lp5128
g1757
aa(lp5129
g1758
aa(lp5130
g1759
aa(lp5131
g1760
aa(lp5132
g1761
aa(lp5133
g1762
aa(lp5134
g1763
aa(lp5135
g1764
aa(lp5136
g1765
aa(lp5137
g1766
aa(lp5138
g1767
aa(lp5139
g1768
aa(lp5140
g1769
aa(lp5141
g1770
aa(lp5142
g1771
aa(lp5143
g1772
aa(lp5144
g1773
aa(lp5145
g1774
aa(lp5146
g1775
aa(lp5147
g1776
aa(lp5148
g1777
aa(lp5149
g1778
aa(lp5150
g1779
aa(lp5151
g1780
aa(lp5152
g1781
aa(lp5153
g1782
aa(lp5154
g1783
aa(lp5155
g1784
aa(lp5156
g1785
aa(lp5157
g1786
aa(lp5158
g1787
aa(lp5159
g1788
aa(lp5160
g1789
aa(lp5161
g1790
aa(lp5162
g1791
aa(lp5163
g1792
aa(lp5164
g1793
aa(lp5165
g1794
aa(lp5166
g1795
aa(lp5167
g1796
aa(lp5168
g1797
aa(lp5169
g1798
aa(lp5170
g1799
aa(lp5171
g1800
aa(lp5172
g1801
aa(lp5173
g1802
aa(lp5174
g1803
aa(lp5175
g1804
aa(lp5176
g1805
aa(lp5177
g1806
aa(lp5178
g1807
aa(lp5179
g1808
aa(lp5180
g1809
aa(lp5181
g1810
aa(lp5182
g1811
aa(lp5183
g1812
aa(lp5184
g1813
aa(lp5185
g1814
aa(lp5186
g1815
aa(lp5187
g1816
aa(lp5188
g1817
aa(lp5189
g1818
aa(lp5190
g1819
aa(lp5191
g1820
aa(lp5192
g1821
aa(lp5193
g1822
aa(lp5194
g1823
aa(lp5195
g1824
aa(lp5196
g1825
aa(lp5197
g1826
aa(lp5198
g1827
aa(lp5199
g1828
aa(lp5200
g1829
aa(lp5201
g1830
aa(lp5202
g1831
aa(lp5203
g1832
aa(lp5204
g1833
aa(lp5205
g1834
aa(lp5206
g1835
aa(lp5207
g1836
aa(lp5208
g1837
aa(lp5209
g1838
aa(lp5210
g1839
aa(lp5211
g1840
aa(lp5212
g1841
aa(lp5213
g1842
aa(lp5214
g1843
aa(lp5215
g1844
aa(lp5216
g1845
aa(lp5217
g1846
aa(lp5218
g1847
aa(lp5219
g1848
aa(lp5220
g1849
aa(lp5221
g1850
aa(lp5222
g1851
aa(lp5223
g1852
aa(lp5224
g1853
aa(lp5225
g1854
aa(lp5226
g1855
aa(lp5227
g1856
aa(lp5228
g1857
aa(lp5229
g1858
aa(lp5230
g1859
aa(lp5231
g1860
aa(lp5232
g1861
aa(lp5233
g1862
aa(lp5234
g1863
aa(lp5235
g1864
aa(lp5236
g1865
aa(lp5237
g1866
aa(lp5238
g1867
aa(lp5239
g1868
aa(lp5240
g1869
aa(lp5241
g1870
aa(lp5242
g1871
aa(lp5243
g1872
aa(lp5244
g1873
aa(lp5245
g1874
aa(lp5246
g1875
aa(lp5247
g1876
aa(lp5248
g1877
aa(lp5249
g1878
aa(lp5250
g1879
aa(lp5251
g1880
aa(lp5252
g1881
aa(lp5253
g1882
aa(lp5254
g1883
aa(lp5255
g1884
aa(lp5256
g1885
aa(lp5257
g1886
aa(lp5258
g1887
aa(lp5259
g1888
aa(lp5260
g1889
aa(lp5261
g1890
aa(lp5262
g1891
aa(lp5263
g1892
aa(lp5264
g1893
aa(lp5265
g1894
aa(lp5266
g1895
aa(lp5267
g1896
aa(lp5268
g1897
aa(lp5269
g1898
aa(lp5270
g1899
aa(lp5271
g1900
aa(lp5272
g1901
aa(lp5273
g1902
aa(lp5274
g1903
aa(lp5275
g1904
aa(lp5276
g1905
aa(lp5277
g1906
aa(lp5278
g1907
aa(lp5279
g1908
aa(lp5280
g1909
aa(lp5281
g1910
aa(lp5282
g1911
aa(lp5283
g1912
aa(lp5284
g1913
aa(lp5285
g1914
aa(lp5286
g1915
aa(lp5287
g1916
aa(lp5288
g1917
aa(lp5289
g1918
aa(lp5290
g1919
aa(lp5291
g1920
aa(lp5292
g1921
aa(lp5293
g1922
aa(lp5294
g1923
aa(lp5295
g1924
aa(lp5296
g1925
aa(lp5297
g1926
aa(lp5298
g1927
aa(lp5299
g1928
aa(lp5300
g1929
aa(lp5301
g1930
aa(lp5302
g1931
aa(lp5303
g1932
aa(lp5304
g1933
aa(lp5305
g1934
aa(lp5306
g1935
aa(lp5307
g1936
aa(lp5308
g1937
aa(lp5309
g1938
aa(lp5310
g1939
aa(lp5311
g1940
aa(lp5312
g1941
aa(lp5313
g1942
aa(lp5314
g1943
aa(lp5315
g1944
aa(lp5316
g1945
aa(lp5317
g1946
aa(lp5318
g1947
aa(lp5319
g1948
aa(lp5320
g1949
aa(lp5321
g1950
aa(lp5322
g1951
aa(lp5323
g1952
aa(lp5324
g1953
aa(lp5325
g1954
aa(lp5326
g1955
aa(lp5327
g1956
aa(lp5328
g1957
aa(lp5329
g1958
aa(lp5330
g1959
aa(lp5331
g1960
aa(lp5332
g1961
aa(lp5333
g1962
aa(lp5334
g1963
aa(lp5335
g1964
aa(lp5336
g1965
aa(lp5337
g1966
aa(lp5338
g1967
aa(lp5339
g1968
aa(lp5340
g1969
aa(lp5341
g1970
aa(lp5342
g1971
aa(lp5343
g1972
aa(lp5344
g1973
aa(lp5345
g1974
aa(lp5346
g1975
aa(lp5347
g1976
aa(lp5348
g1977
aa(lp5349
g1978
aa(lp5350
g1979
aa(lp5351
g1980
aa(lp5352
g1981
aa(lp5353
g1982
aa(lp5354
g1983
aa(lp5355
g1984
aa(lp5356
g1985
aa(lp5357
g1986
aa(lp5358
g1987
aa(lp5359
g1988
aa(lp5360
g1989
aa(lp5361
g1990
aa(lp5362
g1991
aa(lp5363
g1992
aa(lp5364
g1993
aa(lp5365
g1994
aa(lp5366
g1995
aa(lp5367
g1996
aa(lp5368
g1997
aa(lp5369
g1998
aa(lp5370
g1999
aa(lp5371
g2000
aa(lp5372
g2001
aa(lp5373
g2002
aa(lp5374
g2003
aa(lp5375
g2004
aa(lp5376
g2005
aa(lp5377
g2006
aa(lp5378
g2007
aa(lp5379
g2008
aa(lp5380
g2009
aa(lp5381
g2010
aa(lp5382
g2011
aa(lp5383
g2012
aa(lp5384
g2013
aa(lp5385
g2014
aa(lp5386
g2015
aa(lp5387
g2016
aa(lp5388
g2017
aa(lp5389
g2018
aa(lp5390
g2019
aa(lp5391
g2020
aa(lp5392
g2021
aa(lp5393
g2022
aa(lp5394
g2023
aa(lp5395
g2024
aa(lp5396
g2025
aa(lp5397
g2026
aa(lp5398
g2027
aa(lp5399
g2028
aa(lp5400
g2029
aa(lp5401
g2030
aa(lp5402
g2031
aa(lp5403
g2032
aa(lp5404
g2033
aa(lp5405
g2034
aa(lp5406
g2035
aa(lp5407
g2036
aa(lp5408
g2037
aa(lp5409
g2038
aa(lp5410
g2039
aa(lp5411
g2040
aa(lp5412
g2041
aa(lp5413
g2042
aa(lp5414
g2043
aa(lp5415
g2044
aa(lp5416
g2045
aa(lp5417
g2046
aa(lp5418
g2047
aa(lp5419
g2048
aa(lp5420
g2049
aa(lp5421
g2050
aa(lp5422
g2051
aa(lp5423
g2052
aa(lp5424
g2053
aa(lp5425
g2054
aa(lp5426
g2055
aa(lp5427
g2056
aa(lp5428
g2057
aa(lp5429
g2058
aa(lp5430
g2059
aa(lp5431
g2060
aa(lp5432
g2061
aa(lp5433
g2062
aa(lp5434
g2063
aa(lp5435
g2064
aa(lp5436
g2065
aa(lp5437
g2066
aa(lp5438
g2067
aa(lp5439
g2068
aa(lp5440
g2069
aa(lp5441
g2070
aa(lp5442
g2071
aa(lp5443
g2072
aa(lp5444
g2073
aa(lp5445
g2074
aa(lp5446
g2075
aa(lp5447
g2076
aa(lp5448
g2077
aa(lp5449
g2078
aa(lp5450
g2079
aa(lp5451
g2080
aa(lp5452
g2081
aa(lp5453
g2082
aa(lp5454
g2083
aa(lp5455
g2084
aa(lp5456
g2085
aa(lp5457
g2086
aa(lp5458
g2087
aa(lp5459
g2088
aa(lp5460
g2089
aa(lp5461
g2090
aa(lp5462
g2091
aa(lp5463
g2092
aa(lp5464
g2093
aa(lp5465
g2094
aa(lp5466
g2095
aa(lp5467
g2096
aa(lp5468
g2097
aa(lp5469
g2098
aa(lp5470
g2099
aa(lp5471
g2100
aa(lp5472
g2101
aa(lp5473
g2102
aa(lp5474
g2103
aa(lp5475
g2104
aa(lp5476
g2105
aa(lp5477
g2106
aa(lp5478
g2107
aa(lp5479
g2108
aa(lp5480
g2109
aa(lp5481
g2110
aa(lp5482
g2111
aa(lp5483
g2112
aa(lp5484
g2113
aa(lp5485
g2114
aa(lp5486
g2115
aa(lp5487
g2116
aa(lp5488
g2117
aa(lp5489
g2118
aa(lp5490
g2119
aa(lp5491
g2120
aa(lp5492
g2121
aa(lp5493
g2122
aa(lp5494
g2123
aa(lp5495
g2124
aa(lp5496
g2125
aa(lp5497
g2126
aa(lp5498
g2127
aa(lp5499
g2128
aa(lp5500
g2129
aa(lp5501
g2130
aa(lp5502
g2131
aa(lp5503
g2132
aa(lp5504
g2133
aa(lp5505
g2134
aa(lp5506
g2135
aa(lp5507
g2136
aa(lp5508
g2137
aa(lp5509
g2138
aa(lp5510
g2139
aa(lp5511
g2140
aa(lp5512
g2141
aa(lp5513
g2142
aa(lp5514
g2143
aa(lp5515
g2144
aa(lp5516
g2145
aa(lp5517
g2146
aa(lp5518
g2147
aa(lp5519
g2148
aa(lp5520
g2149
aa(lp5521
g2150
aa(lp5522
g2151
aa(lp5523
g2152
aa(lp5524
g2153
aa(lp5525
g2154
aa(lp5526
g2155
aa(lp5527
g2156
aa(lp5528
g2157
aa(lp5529
g2158
aa(lp5530
g2159
aa(lp5531
g2160
aa(lp5532
g2161
aa(lp5533
g2162
aa(lp5534
g2163
aa(lp5535
g2164
aa(lp5536
g2165
aa(lp5537
g2166
aa(lp5538
g2167
aa(lp5539
g2168
aa(lp5540
g2169
aa(lp5541
g2170
aa(lp5542
g2171
aa(lp5543
g2172
aa(lp5544
g2173
aa(lp5545
g2174
aa(lp5546
g2175
aa(lp5547
g2176
aa(lp5548
g2177
aa(lp5549
g2178
aa(lp5550
g2179
aa(lp5551
g2180
aa(lp5552
g2181
aa(lp5553
g2182
aa(lp5554
g2183
aa(lp5555
g2184
aa(lp5556
g2185
aa(lp5557
g2186
aa(lp5558
g2187
aa(lp5559
g2188
aa(lp5560
g2189
aa(lp5561
g2190
aa(lp5562
g2191
aa(lp5563
g2192
aa(lp5564
g2193
aa(lp5565
g2194
aa(lp5566
g2195
aa(lp5567
g2196
aa(lp5568
g2197
aa(lp5569
g2198
aa(lp5570
g2199
aa(lp5571
g2200
aa(lp5572
g2201
aa(lp5573
g2202
aa(lp5574
g2203
aa(lp5575
g2204
aa(lp5576
g2205
aa(lp5577
g2206
aa(lp5578
g2207
aa(lp5579
g2208
aa(lp5580
g2209
aa(lp5581
g2210
aa(lp5582
g2211
aa(lp5583
g2212
aa(lp5584
g2213
aa(lp5585
g2214
aa(lp5586
g2215
aa(lp5587
g2216
aa(lp5588
g2217
aa(lp5589
g2218
aa(lp5590
g2219
aa(lp5591
g2220
aa(lp5592
g2221
aa(lp5593
g2222
aa(lp5594
g2223
aa(lp5595
g2224
aa(lp5596
g2225
aa(lp5597
g2226
aa(lp5598
g2227
aa(lp5599
g2228
aa(lp5600
g2229
aa(lp5601
g2230
aa(lp5602
g2231
aa(lp5603
g2232
aa(lp5604
g2233
aa(lp5605
g2234
aa(lp5606
g2235
aa(lp5607
g2236
aa(lp5608
g2237
aa(lp5609
g2238
aa(lp5610
g2239
aa(lp5611
g2240
aa(lp5612
g2241
aa(lp5613
g2242
aa(lp5614
g2243
aa(lp5615
g2244
aa(lp5616
g2245
aa(lp5617
g2246
aa(lp5618
g2247
aa(lp5619
g2248
aa(lp5620
g2249
aa(lp5621
g2250
aa(lp5622
g2251
aa(lp5623
g2252
aa(lp5624
g2253
aa(lp5625
g2254
aa(lp5626
g2255
aa(lp5627
g2256
aa(lp5628
g2257
aa(lp5629
g2258
aa(lp5630
g2259
aa(lp5631
g2260
aa(lp5632
g2261
aa(lp5633
g2262
aa(lp5634
g2263
aa(lp5635
g2264
aa(lp5636
g2265
aa(lp5637
g2266
aa(lp5638
g2267
aa(lp5639
g2268
aa(lp5640
g2269
aa(lp5641
g2270
aa(lp5642
g2271
aa(lp5643
g2272
aa(lp5644
g2273
aa(lp5645
g2274
aa(lp5646
g2275
aa(lp5647
g2276
aa(lp5648
g2277
aa(lp5649
g2278
aa(lp5650
g2279
aa(lp5651
g2280
aa(lp5652
g2281
aa(lp5653
g2282
aa(lp5654
g2283
aa(lp5655
g2284
aa(lp5656
g2285
aa(lp5657
g2286
aa(lp5658
g2287
aa(lp5659
g2288
aa(lp5660
g2289
aa(lp5661
g2290
aa(lp5662
g2291
aa(lp5663
g2292
aa(lp5664
g2293
aa(lp5665
g2294
aa(lp5666
g2295
aa(lp5667
g2296
aa(lp5668
g2297
aa(lp5669
g2298
aa(lp5670
g2299
aa(lp5671
g2300
aa(lp5672
g2301
aa(lp5673
g2302
aa(lp5674
g2303
aa(lp5675
g2304
aa(lp5676
g2305
aa(lp5677
g2306
aa(lp5678
g2307
aa(lp5679
g2308
aa(lp5680
g2309
aa(lp5681
g2310
aa(lp5682
g2311
aa(lp5683
g2312
aa(lp5684
g2313
aa(lp5685
g2314
aa(lp5686
g2315
aa(lp5687
g2316
aa(lp5688
g2317
aa(lp5689
g2318
aa(lp5690
g2319
aa(lp5691
g2320
aa(lp5692
g2321
aa(lp5693
g2322
aa(lp5694
g2323
aa(lp5695
g2324
aa(lp5696
g2325
aa(lp5697
g2326
aa(lp5698
g2327
aa(lp5699
g2328
aa(lp5700
g2329
aa(lp5701
g2330
aa(lp5702
g2331
aa(lp5703
g2332
aa(lp5704
g2333
aa(lp5705
g2334
aa(lp5706
g2335
aa(lp5707
g2336
aa(lp5708
g2337
aa(lp5709
g2338
aa(lp5710
g2339
aa(lp5711
g2340
aa(lp5712
g2341
aa(lp5713
g2342
aa(lp5714
g2343
aa(lp5715
g2344
aa(lp5716
g2345
aa(lp5717
g2346
aa(lp5718
g2347
aa(lp5719
g2348
aa(lp5720
g2349
aa(lp5721
g2350
aa(lp5722
g2351
aa(lp5723
g2352
aa(lp5724
g2353
aa(lp5725
g2354
aa(lp5726
g2355
aa(lp5727
g2356
aa(lp5728
g2357
aa(lp5729
g2358
aa(lp5730
g2359
aa(lp5731
g2360
aa(lp5732
g2361
aa(lp5733
g2362
aa(lp5734
g2363
aa(lp5735
g2364
aa(lp5736
g2365
aa(lp5737
g2366
aa(lp5738
g2367
aa(lp5739
g2368
aa(lp5740
g2369
aa(lp5741
g2370
aa(lp5742
g2371
aa(lp5743
g2372
aa(lp5744
g2373
aa(lp5745
g2374
aa(lp5746
g2375
aa(lp5747
g2376
aa(lp5748
g2377
aa(lp5749
g2378
aa(lp5750
g2379
aa(lp5751
g2380
aa(lp5752
g2381
aa(lp5753
g2382
aa(lp5754
g2383
aa(lp5755
g2384
aa(lp5756
g2385
aa(lp5757
g2386
aa(lp5758
g2387
aa(lp5759
g2388
aa(lp5760
g2389
aa(lp5761
g2390
aa(lp5762
g2391
aa(lp5763
g2392
aa(lp5764
g2393
aa(lp5765
g2394
aa(lp5766
g2395
aa(lp5767
g2396
aa(lp5768
g2397
aa(lp5769
g2398
aa(lp5770
g2399
aa(lp5771
g2400
aa(lp5772
g2401
aa(lp5773
g2402
aa(lp5774
g2403
aa(lp5775
g2404
aa(lp5776
g2405
aa(lp5777
g2406
aa(lp5778
g2407
aa(lp5779
g2408
aa(lp5780
g2409
aa(lp5781
g2410
aa(lp5782
g2411
aa(lp5783
g2412
aa(lp5784
g2413
aa(lp5785
g2414
aa(lp5786
g2415
aa(lp5787
g2416
aa(lp5788
g2417
aa(lp5789
g2418
aa(lp5790
g2419
aa(lp5791
g2420
aa(lp5792
g2421
aa(lp5793
g2422
aa(lp5794
g2423
aa(lp5795
g2424
aa(lp5796
g2425
aa(lp5797
g2426
aa(lp5798
g2427
aa(lp5799
g2428
aa(lp5800
g2429
aa(lp5801
g2430
aa(lp5802
g2431
aa(lp5803
g2432
aa(lp5804
g2433
aa(lp5805
g2434
aa(lp5806
g2435
aa(lp5807
g2436
aa(lp5808
g2437
aa(lp5809
g2438
aa(lp5810
g2439
aa(lp5811
g2440
aa(lp5812
g2441
aa(lp5813
g2442
aa(lp5814
g2443
aa(lp5815
g2444
aa(lp5816
g2445
aa(lp5817
g2446
aa(lp5818
g2447
aa(lp5819
g2448
aa(lp5820
g2449
aa(lp5821
g2450
aa(lp5822
g2451
aa(lp5823
g2452
aa(lp5824
g2453
aa(lp5825
g2454
aa(lp5826
g2455
aa(lp5827
g2456
aa(lp5828
g2457
aa(lp5829
g2458
aa(lp5830
g2459
aa(lp5831
g2460
aa(lp5832
g2461
aa(lp5833
g2462
aa(lp5834
g2463
aa(lp5835
g2464
aa(lp5836
g2465
aa(lp5837
g2466
aa(lp5838
g2467
aa(lp5839
g2468
aa(lp5840
g2469
aa(lp5841
g2470
aa(lp5842
g2471
aa(lp5843
g2472
aa(lp5844
g2473
aa(lp5845
g2474
aa(lp5846
g2475
aa(lp5847
g2476
aa(lp5848
g2477
aa(lp5849
g2478
aa(lp5850
g2479
aa(lp5851
g2480
aa(lp5852
g2481
aa(lp5853
g2482
aa(lp5854
g2483
aa(lp5855
g2484
aa(lp5856
g2485
aa(lp5857
g2486
aa(lp5858
g2487
aa(lp5859
g2488
aa(lp5860
g2489
aa(lp5861
g2490
aa(lp5862
g2491
aa(lp5863
g2492
aa(lp5864
g2493
aa(lp5865
g2494
aa(lp5866
g2495
aa(lp5867
g2496
aa(lp5868
g2497
aa(lp5869
g2498
aa(lp5870
g2499
aa(lp5871
g2500
aa(lp5872
g2501
aa(lp5873
g2502
aa(lp5874
g2503
aa(lp5875
g2504
aa(lp5876
g2505
aa(lp5877
g2506
aa(lp5878
g2507
aa(lp5879
g2508
aa(lp5880
g2509
aa(lp5881
g2510
aa(lp5882
g2511
aa(lp5883
g2512
aa(lp5884
g2513
aa(lp5885
g2514
aa(lp5886
g2515
aa(lp5887
g2516
aa(lp5888
g2517
aa(lp5889
g2518
aa(lp5890
g2519
aa(lp5891
g2520
aa(lp5892
g2521
aa(lp5893
g2522
aa(lp5894
g2523
aa(lp5895
g2524
aa(lp5896
g2525
aa(lp5897
g2526
aa(lp5898
g2527
aa(lp5899
g2528
aa(lp5900
g2529
aa(lp5901
g2530
aa(lp5902
g2531
aa(lp5903
g2532
aa(lp5904
g2533
aa(lp5905
g2534
aa(lp5906
g2535
aa(lp5907
g2536
aa(lp5908
g2537
aa(lp5909
g2538
aa(lp5910
g2539
aa(lp5911
g2540
aa(lp5912
g2541
aa(lp5913
g2542
aa(lp5914
g2543
aa(lp5915
g2544
aa(lp5916
g2545
aa(lp5917
g2546
aa(lp5918
g2547
aa(lp5919
g2548
aa(lp5920
g2549
aa(lp5921
g2550
aa(lp5922
g2551
aa(lp5923
g2552
aa(lp5924
g2553
aa(lp5925
g2554
aa(lp5926
g2555
aa(lp5927
g2556
aa(lp5928
g2557
aa(lp5929
g2558
aa(lp5930
g2559
aa(lp5931
g2560
aa(lp5932
g2561
aa(lp5933
g2562
aa(lp5934
g2563
aa(lp5935
g2564
aa(lp5936
g2565
aa(lp5937
g2566
aa(lp5938
g2567
aa(lp5939
g2568
aa(lp5940
g2569
aa(lp5941
g2570
aa(lp5942
g2571
aa(lp5943
g2572
aa(lp5944
g2573
aa(lp5945
g2574
aa(lp5946
g2575
aa(lp5947
g2576
aa(lp5948
g2577
aa(lp5949
g2578
aa(lp5950
g2579
aa(lp5951
g2580
aa(lp5952
g2581
aa(lp5953
g2582
aa(lp5954
g2583
aa(lp5955
g2584
aa(lp5956
g2585
aa(lp5957
g2586
aa(lp5958
g2587
aa(lp5959
g2588
aa(lp5960
g2589
aa(lp5961
g2590
aa(lp5962
g2591
aa(lp5963
g2592
aa(lp5964
g2593
aa(lp5965
g2594
aa(lp5966
g2595
aa(lp5967
g2596
aa(lp5968
g2597
aa(lp5969
g2598
aa(lp5970
g2599
aa(lp5971
g2600
aa(lp5972
g2601
aa(lp5973
g2602
aa(lp5974
g2603
aa(lp5975
g2604
aa(lp5976
g2605
aa(lp5977
g2606
aa(lp5978
g2607
aa(lp5979
g2608
aa(lp5980
g2609
aa(lp5981
g2610
aa(lp5982
g2611
aa(lp5983
g2612
aa(lp5984
g2613
aa(lp5985
g2614
aa(lp5986
g2615
aa(lp5987
g2616
aa(lp5988
g2617
aa(lp5989
g2618
aa(lp5990
g2619
aa(lp5991
g2620
aa(lp5992
g2621
aa(lp5993
g2622
aa(lp5994
g2623
aa(lp5995
g2624
aa(lp5996
g2625
aa(lp5997
g2626
aa(lp5998
g2627
aa(lp5999
g2628
aa(lp6000
g2629
aa(lp6001
g2630
aa(lp6002
g2631
aa(lp6003
g2632
aa(lp6004
g2633
aa(lp6005
g2634
aa(lp6006
g2635
aa(lp6007
g2636
aa(lp6008
g2637
aa(lp6009
g2638
aa(lp6010
g2639
aa(lp6011
g2640
aa(lp6012
g2641
aa(lp6013
g2642
aa(lp6014
g2643
aa(lp6015
g2644
aa(lp6016
g2645
aa(lp6017
g2646
aa(lp6018
g2647
aa(lp6019
g2648
aa(lp6020
g2649
aa(lp6021
g2650
aa(lp6022
g2651
aa(lp6023
g2652
aa(lp6024
g2653
aa(lp6025
g2654
aa(lp6026
g2655
aa(lp6027
g2656
aa(lp6028
g2657
aa(lp6029
g2658
aa(lp6030
g2659
aa(lp6031
g2660
aa(lp6032
g2661
aa(lp6033
g2662
aa(lp6034
g2663
aa(lp6035
g2664
aa(lp6036
g2665
aa(lp6037
g2666
aa(lp6038
g2667
aa(lp6039
g2668
aa(lp6040
g2669
aa(lp6041
g2670
aa(lp6042
g2671
aa(lp6043
g2672
aa(lp6044
g2673
aa(lp6045
g2674
aa(lp6046
g2675
aa(lp6047
g2676
aa(lp6048
g2677
aa(lp6049
g2678
aa(lp6050
g2679
aa(lp6051
g2680
aa(lp6052
g2681
aa(lp6053
g2682
aa(lp6054
g2683
aa(lp6055
g2684
aa(lp6056
g2685
aa(lp6057
g2686
aa(lp6058
g2687
aa(lp6059
g2688
aa(lp6060
g2689
aa(lp6061
g2690
aa(lp6062
g2691
aa(lp6063
g2692
aa(lp6064
g2693
aa(lp6065
g2694
aa(lp6066
g2695
aa(lp6067
g2696
aa(lp6068
g2697
aa(lp6069
g2698
aa(lp6070
g2699
aa(lp6071
g2700
aa(lp6072
g2701
aa(lp6073
g2702
aa(lp6074
g2703
aa(lp6075
g2704
aa(lp6076
g2705
aa(lp6077
g2706
aa(lp6078
g2707
aa(lp6079
g2708
aa(lp6080
g2709
aa(lp6081
g2710
aa(lp6082
g2711
aa(lp6083
g2712
aa(lp6084
g2713
aa(lp6085
g2714
aa(lp6086
g2715
aa(lp6087
g2716
aa(lp6088
g2717
aa(lp6089
g2718
aa(lp6090
g2719
aa(lp6091
g2720
aa(lp6092
g2721
aa(lp6093
g2722
aa(lp6094
g2723
aa(lp6095
g2724
aa(lp6096
g2725
aa(lp6097
g2726
aa(lp6098
g2727
aa(lp6099
g2728
aa(lp6100
g2729
aa(lp6101
g2730
aa(lp6102
g2731
aa(lp6103
g2732
aa(lp6104
g2733
aa(lp6105
g2734
aa(lp6106
g2735
aa(lp6107
g2736
aa(lp6108
g2737
aa(lp6109
g2738
aa(lp6110
g2739
aa(lp6111
g2740
aa(lp6112
g2741
aa(lp6113
g2742
aa(lp6114
g2743
aa(lp6115
g2744
aa(lp6116
g2745
aa(lp6117
g2746
aa(lp6118
g2747
aa(lp6119
g2748
aa(lp6120
g2749
aa(lp6121
g2750
aa(lp6122
g2751
aa(lp6123
g2752
aa(lp6124
g2753
aa(lp6125
g2754
aa(lp6126
g2755
aa(lp6127
g2756
aa(lp6128
g2757
aa(lp6129
g2758
aa(lp6130
g2759
aa(lp6131
g2760
aa(lp6132
g2761
aa(lp6133
g2762
aa(lp6134
g2763
aa(lp6135
g2764
aa(lp6136
g2765
aa(lp6137
g2766
aa(lp6138
g2767
aa(lp6139
g2768
aa(lp6140
g2769
aa(lp6141
g2770
aa(lp6142
g2771
aa(lp6143
g2772
aa(lp6144
g2773
aa(lp6145
g2774
aa(lp6146
g2775
aa(lp6147
g2776
aa(lp6148
g2777
aa(lp6149
g2778
aa(lp6150
g2779
aa(lp6151
g2780
aa(lp6152
g2781
aa(lp6153
g2782
aa(lp6154
g2783
aa(lp6155
g2784
aa(lp6156
g2785
aa(lp6157
g2786
aa(lp6158
g2787
aa(lp6159
g2788
aa(lp6160
g2789
aa(lp6161
g2790
aa(lp6162
g2791
aa(lp6163
g2792
aa(lp6164
g2793
aa(lp6165
g2794
aa(lp6166
g2795
aa(lp6167
g2796
aa(lp6168
g2797
aa(lp6169
g2798
aa(lp6170
g2799
aa(lp6171
g2800
aa(lp6172
g2801
aa(lp6173
g2802
aa(lp6174
g2803
aa(lp6175
g2804
aa(lp6176
g2805
aa(lp6177
g2806
aa(lp6178
g2807
aa(lp6179
g2808
aa(lp6180
g2809
aa(lp6181
g2810
aa(lp6182
g2811
aa(lp6183
g2812
aa(lp6184
g2813
aa(lp6185
g2814
aa(lp6186
g2815
aa(lp6187
g2816
aa(lp6188
g2817
aa(lp6189
g2818
aa(lp6190
g2819
aa(lp6191
g2820
aa(lp6192
g2821
aa(lp6193
g2822
aa(lp6194
g2823
aa(lp6195
g2824
aa(lp6196
g2825
aa(lp6197
g2826
aa(lp6198
g2827
aa(lp6199
g2828
aa(lp6200
g2829
aa(lp6201
g2830
aa(lp6202
g2831
aa(lp6203
g2832
aa(lp6204
g2833
aa(lp6205
g2834
aa(lp6206
g2835
aa(lp6207
g2836
aa(lp6208
g2837
aa(lp6209
g2838
aa(lp6210
g2839
aa(lp6211
g2840
aa(lp6212
g2841
aa(lp6213
g2842
aa(lp6214
g2843
aa(lp6215
g2844
aa(lp6216
g2845
aa(lp6217
g2846
aa(lp6218
g2847
aa(lp6219
g2848
aa(lp6220
g2849
aa(lp6221
g2850
aa(lp6222
g2851
aa(lp6223
g2852
aa(lp6224
g2853
aa(lp6225
g2854
aa(lp6226
g2855
aa(lp6227
g2856
aa(lp6228
g2857
aa(lp6229
g2858
aa(lp6230
g2859
aa(lp6231
g2860
aa(lp6232
g2861
aa(lp6233
g2862
aa(lp6234
g2863
aa(lp6235
g2864
aa(lp6236
g2865
aa(lp6237
g2866
aa(lp6238
g2867
aa(lp6239
g2868
aa(lp6240
g2869
aa(lp6241
g2870
aa(lp6242
g2871
aa(lp6243
g2872
aa(lp6244
g2873
aa(lp6245
g2874
aa(lp6246
g2875
aa(lp6247
g2876
aa(lp6248
g2877
aa(lp6249
g2878
aa(lp6250
g2879
aa(lp6251
g2880
aa(lp6252
g2881
aa(lp6253
g2882
aa(lp6254
g2883
aa(lp6255
g2884
aa(lp6256
g2885
aa(lp6257
g2886
aa(lp6258
g2887
aa(lp6259
g2888
aa(lp6260
g2889
aa(lp6261
g2890
aa(lp6262
g2891
aa(lp6263
g2892
aa(lp6264
g2893
aa(lp6265
g2894
aa(lp6266
g2895
aa(lp6267
g2896
aa(lp6268
g2897
aa(lp6269
g2898
aa(lp6270
g2899
aa(lp6271
g2900
aa(lp6272
g2901
aa(lp6273
g2902
aa(lp6274
g2903
aa(lp6275
g2904
aa(lp6276
g2905
aa(lp6277
g2906
aa(lp6278
g2907
aa(lp6279
g2908
aa(lp6280
g2909
aa(lp6281
g2910
aa(lp6282
g2911
aa(lp6283
g2912
aa(lp6284
g2913
aa(lp6285
g2914
aa(lp6286
g2915
aa(lp6287
g2916
aa(lp6288
g2917
aa(lp6289
g2918
aa(lp6290
g2919
aa(lp6291
g2920
aa(lp6292
g2921
aa(lp6293
g2922
aa(lp6294
g2923
aa(lp6295
g2924
aa(lp6296
g2925
aa(lp6297
g2926
aa(lp6298
g2927
aa(lp6299
g2928
aa(lp6300
g2929
aa(lp6301
g2930
aa(lp6302
g2931
aa(lp6303
g2932
aa(lp6304
g2933
aa(lp6305
g2934
aa(lp6306
g2935
aa(lp6307
g2936
aa(lp6308
g2937
aa(lp6309
g2938
aa(lp6310
g2939
aa(lp6311
g2940
aa(lp6312
g2941
aa(lp6313
g2942
aa(lp6314
g2943
aa(lp6315
g2944
aa(lp6316
g2945
aa(lp6317
g2946
aa(lp6318
g2947
aa(lp6319
g2948
aa(lp6320
g2949
aa(lp6321
g2950
aa(lp6322
g2951
aa(lp6323
g2952
aa(lp6324
g2953
aa(lp6325
g2954
aa(lp6326
g2955
aa(lp6327
g2956
aa(lp6328
g2957
aa(lp6329
g2958
aa(lp6330
g2959
aa(lp6331
g2960
aa(lp6332
g2961
aa(lp6333
g2962
aa(lp6334
g2963
aa(lp6335
g2964
aa(lp6336
g2965
aa(lp6337
g2966
aa(lp6338
g2967
aa(lp6339
g2968
aa(lp6340
g2969
aa(lp6341
g2970
aa(lp6342
g2971
aa(lp6343
g2972
aa(lp6344
g2973
aa(lp6345
g2974
aa(lp6346
g2975
aa(lp6347
g2976
aa(lp6348
g2977
aa(lp6349
g2978
aa(lp6350
g2979
aa(lp6351
g2980
aa(lp6352
g2981
aa(lp6353
g2982
aa(lp6354
g2983
aa(lp6355
g2984
aa(lp6356
g2985
aa(lp6357
g2986
aa(lp6358
g2987
aa(lp6359
g2988
aa(lp6360
g2989
aa(lp6361
g2990
aa(lp6362
g2991
aa(lp6363
g2992
aa(lp6364
g2993
aa(lp6365
g2994
aa(lp6366
g2995
aa(lp6367
g2996
aa(lp6368
g2997
aa(lp6369
g2998
aa(lp6370
g2999
aa(lp6371
g3000
aa(lp6372
g3001
aa(lp6373
g3002
aa(lp6374
g3003
aa(lp6375
g3004
aa(lp6376
g3005
aa(lp6377
g3006
aa(lp6378
g3007
aa(lp6379
g3008
aa(lp6380
g3009
aa(lp6381
g3010
aa(lp6382
g3011
aa(lp6383
g3012
aa(lp6384
g3013
aa(lp6385
g3014
aa(lp6386
g3015
aa(lp6387
g3016
aa(lp6388
g3017
aa(lp6389
g3018
aa(lp6390
g3019
aa(lp6391
g3020
aa(lp6392
g3021
aa(lp6393
g3022
aa(lp6394
g3023
aa(lp6395
g3024
aa(lp6396
g3025
aa(lp6397
g3026
aa(lp6398
g3027
aa(lp6399
g3028
aa(lp6400
g3029
aa(lp6401
g3030
aa(lp6402
g3031
aa(lp6403
g3032
aa(lp6404
g3033
aa(lp6405
g3034
aa(lp6406
g3035
aa(lp6407
g3036
aa(lp6408
g3037
aa(lp6409
g3038
aa(lp6410
g3039
aa(lp6411
g3040
aa(lp6412
g3041
aa(lp6413
g3042
aa(lp6414
g3043
aa(lp6415
g3044
aa(lp6416
g3045
aa(lp6417
g3046
aa(lp6418
g3047
aa(lp6419
g3048
aa(lp6420
g3049
aa(lp6421
g3050
aa(lp6422
g3051
aa(lp6423
g3052
aa(lp6424
g3053
aa(lp6425
g3054
aa(lp6426
g3055
aa(lp6427
g3056
aa(lp6428
g3057
aa(lp6429
g3058
aa(lp6430
g3059
aa(lp6431
g3060
aa(lp6432
g3061
aa(lp6433
g3062
aa(lp6434
g3063
aa(lp6435
g3064
aa(lp6436
g3065
aa(lp6437
g3066
aa(lp6438
g3067
aa(lp6439
g3068
aa(lp6440
g3069
aa(lp6441
g3070
aa(lp6442
g3071
aa(lp6443
g3072
aa(lp6444
g3073
aa(lp6445
g3074
aa(lp6446
g3075
aa(lp6447
g3076
aa(lp6448
g3077
aa(lp6449
g3078
aa(lp6450
g3079
aa(lp6451
g3080
aa(lp6452
g3081
aa(lp6453
g3082
aa(lp6454
g3083
aa(lp6455
g3084
aa(lp6456
g3085
aa(lp6457
g3086
aa(lp6458
g3087
aa(lp6459
g3088
aa(lp6460
g3089
aa(lp6461
g3090
aa(lp6462
g3091
aa(lp6463
g3092
aa(lp6464
g3093
aa(lp6465
g3094
aa(lp6466
g3095
aa(lp6467
g3096
aa(lp6468
g3097
aa(lp6469
g3098
aa(lp6470
g3099
aa(lp6471
g3100
aa(lp6472
g3101
aa(lp6473
g3102
aa(lp6474
g3103
aa(lp6475
g3104
aa(lp6476
g3105
aa(lp6477
g3106
aa(lp6478
g3107
aa(lp6479
g3108
aa(lp6480
g3109
aa(lp6481
g3110
aa(lp6482
g3111
aa(lp6483
g3112
aa(lp6484
g3113
aa(lp6485
g3114
aa(lp6486
g3115
aa(lp6487
g3116
aa(lp6488
g3117
aa(lp6489
g3118
aa(lp6490
g3119
aa(lp6491
g3120
aa(lp6492
g3121
aa(lp6493
g3122
aa(lp6494
g3123
aa(lp6495
g3124
aa(lp6496
g3125
aa(lp6497
g3126
aa(lp6498
g3127
aa(lp6499
g3128
aa(lp6500
g3129
aa(lp6501
g3130
aa(lp6502
g3131
aa(lp6503
g3132
aa(lp6504
g3133
aa(lp6505
g3134
aa(lp6506
g3135
aa(lp6507
g3136
aa(lp6508
g3137
aa(lp6509
g3138
aa(lp6510
g3139
aa(lp6511
g3140
aa(lp6512
g3141
aa(lp6513
g3142
aa(lp6514
g3143
aa(lp6515
g3144
aa(lp6516
g3145
aa(lp6517
g3146
aa(lp6518
g3147
aa(lp6519
g3148
aa(lp6520
g3149
aa(lp6521
g3150
aa(lp6522
g3151
aa(lp6523
g3152
aa(lp6524
g3153
aa(lp6525
g3154
aa(lp6526
g3155
aa(lp6527
g3156
aa(lp6528
g3157
aa(lp6529
g3158
aa(lp6530
g3159
aa(lp6531
g3160
aa(lp6532
g3161
aa(lp6533
g3162
aa(lp6534
g3163
aa(lp6535
g3164
aa(lp6536
g3165
aa(lp6537
g3166
aa(lp6538
g3167
aa(lp6539
g3168
aa(lp6540
g3169
aa(lp6541
g3170
aa(lp6542
g3171
aa(lp6543
g3172
aa(lp6544
g3173
aa(lp6545
g3174
aa(lp6546
g3175
aa(lp6547
g3176
aa(lp6548
g3177
aa(lp6549
g3178
aa(lp6550
g3179
aa(lp6551
g3180
aa(lp6552
g3181
aa(lp6553
g3182
aa(lp6554
g3183
aa(lp6555
g3184
aa(lp6556
g3185
aa(lp6557
g3186
aa(lp6558
g3187
aa(lp6559
g3188
aa(lp6560
g3189
aa(lp6561
g3190
aa(lp6562
g3191
aa(lp6563
g3192
aa(lp6564
g3193
aa(lp6565
g3194
aa(lp6566
g3195
aa(lp6567
g3196
aa(lp6568
g3197
aa(lp6569
g3198
aa(lp6570
g3199
aa(lp6571
g3200
aa(lp6572
g3201
aa(lp6573
g3202
aa(lp6574
g3203
aa(lp6575
g3204
aa(lp6576
g3205
aa(lp6577
g3206
aa(lp6578
g3207
aa(lp6579
g3208
aa(lp6580
g3209
aa(lp6581
g3210
aa(lp6582
g3211
aa(lp6583
g3212
aa(lp6584
g3213
aa(lp6585
g3214
aa(lp6586
g3215
aa(lp6587
g3216
aa(lp6588
g3217
aa(lp6589
g3218
aa(lp6590
g3219
aa(lp6591
g3220
aa(lp6592
g3221
aa(lp6593
g3222
aa(lp6594
g3223
aa(lp6595
g3224
aa(lp6596
g3225
aa(lp6597
g3226
aa(lp6598
g3227
aa(lp6599
g3228
aa(lp6600
g3229
aa(lp6601
g3230
aa(lp6602
g3231
aa(lp6603
g3232
aa(lp6604
g3233
aa(lp6605
g3234
aa(lp6606
g3235
aa(lp6607
g3236
aa(lp6608
g3237
aa(lp6609
g3238
aa(lp6610
g3239
aa(lp6611
g3240
aa(lp6612
g3241
aa(lp6613
g3242
aa(lp6614
g3243
aa(lp6615
g3244
aa(lp6616
g3245
aa(lp6617
g3246
aa(lp6618
g3247
aa(lp6619
g3248
aa(lp6620
g3249
aa(lp6621
g3250
aa(lp6622
g3251
aa(lp6623
g3252
aa(lp6624
g3253
aa(lp6625
g3254
aa(lp6626
g3255
aa(lp6627
g3256
aa(lp6628
g3257
aa(lp6629
g3258
aa(lp6630
g3259
aa(lp6631
g3260
aa(lp6632
g3261
aa(lp6633
g3262
aa(lp6634
g3263
aa(lp6635
g3264
aa(lp6636
g3265
aa(lp6637
g3266
aa(lp6638
g3267
aa(lp6639
g3268
aa(lp6640
g3269
aa(lp6641
g3270
aa(lp6642
g3271
aa(lp6643
g3272
aa(lp6644
g3273
aa(lp6645
g3274
aa(lp6646
g3275
aa(lp6647
g3276
aa(lp6648
g3277
aa(lp6649
g3278
aa(lp6650
g3279
aa(lp6651
g3280
aa(lp6652
g3281
aa(lp6653
g3282
aa(lp6654
g3283
aa(lp6655
g3284
aa(lp6656
g3285
aa(lp6657
g3286
aa(lp6658
g3287
aa(lp6659
g3288
aa(lp6660
g3289
aa(lp6661
g3290
aa(lp6662
g3291
aa(lp6663
g3292
aa(lp6664
g3293
aa(lp6665
g3294
aa(lp6666
g3295
aa(lp6667
g3296
aa(lp6668
g3297
aa(lp6669
g3298
aa(lp6670
g3299
aa(lp6671
g3300
aa(lp6672
g3301
aa(lp6673
g3302
aa(lp6674
g3303
aa(lp6675
g3304
aa(lp6676
g3305
aa(lp6677
g3306
aa(lp6678
g3307
aa(lp6679
g3308
aa(lp6680
g3309
aa(lp6681
g3310
aa(lp6682
g3311
aa(lp6683
g3312
aa(lp6684
g3313
aa(lp6685
g3314
aa(lp6686
g3315
aa(lp6687
g3316
aa(lp6688
g3317
aa(lp6689
g3318
aa(lp6690
g3319
aa(lp6691
g3320
aa(lp6692
g3321
aa(lp6693
g3322
aa(lp6694
g3323
aa(lp6695
g3324
aa(lp6696
g3325
aa(lp6697
g3326
aa(lp6698
g3327
aa(lp6699
g3328
aa(lp6700
g3329
aa(lp6701
g3330
aa(lp6702
g3331
aa(lp6703
g3332
aa(lp6704
g3333
aa(lp6705
g3334
aa(lp6706
g3335
aa(lp6707
g3336
aa(lp6708
g3337
aa(lp6709
g3338
aa(lp6710
g3339
aa(lp6711
g3340
aa(lp6712
g3341
aa(lp6713
g3342
aa(lp6714
g3343
aa(lp6715
g3344
aa(lp6716
g3345
aa(lp6717
g3346
aa(lp6718
g3347
aa(lp6719
g3348
aa(lp6720
g3349
aa(lp6721
g3350
aa(lp6722
g3351
aa(lp6723
g3352
aa(lp6724
g3353
aa(lp6725
g3354
aa(lp6726
g3355
aa(lp6727
g3356
aa(lp6728
g3357
aa(lp6729
g3358
aa(lp6730
g3359
aa(lp6731
g3360
aa(lp6732
g3361
aa(lp6733
g3362
aa(lp6734
g3363
aa(lp6735
g3364
aa(lp6736
g3365
aa(lp6737
g3366
aa(lp6738
g3367
aa(lp6739
g3368
aa(lp6740
g3369
aa(lp6741
g3370
aa(lp6742
g3371
aa(lp6743
g3372
aa(lp6744
g3373
aa.